"File: sd_interface.c  Assembler  Version HGASM0202      Page 1


   1  0000              ; Generated by holtek-gcc v3.14, Wed May 30 13:25:12 2018
   2  0000              ; 
   3  0000              ; Configuration:
   4  0000              ;       without long instruction
   5  0000              ;       Single ROM, Multi-RAM
   6  0000              ;       bits_per_rom_unit:16
   7  0000              ;       with mp1
   8  0000              ;       with tbhp, address(0x9)
   9  0000              ;          Use tabrd-const
  10  0000              ;       
  11  0000              ;       
  12  0000              ;       
  13  0000              ; use 'tabrdc' instead of 'tabrd'
  14  0000              ;       
  15  0000              
  16  0000              #pragma translator "holtek-gcc 4.6.4" "3.14" "build 20130711"
  17  0000              ; Rebuild 10
  18  0000              
  19  0000              ir equ [2]
  20  0000              mp equ [3]
  21  0000              sbp equ [1]
  22  0000              acc equ [5]
  23  0000              bp equ [4]
  24  0000              tblp equ [7]
  25  0000              tbhp equ [9]
  26  0000              status equ [10]
  27  0000              c equ [10].0
  28  0000              ac equ [10].1
  29  0000              z equ [10].2
  30  0000              ov equ [10].3
  31  0000              intc equ [11]
  32  0000              
  33  0000              extern ra:byte
  34  0000              extern rb:byte
  35  0000              extern rc:byte
  36  0000              extern rd:byte
  37  0000              extern re:byte
  38  0000              extern rf:byte
  39  0000              extern rg:byte
  40  0000              extern rh:byte
  41  0000              extern _Crom2Prom:near
  42  0000              extern _Crom2PromNext:near
  43  0000              
  44  0000              RAMBANK 0 @HCCINIT, @HCCINIT0
  45  0000              
  46  0000              RAMBANK 0 @BITDATASEC, @BITDATASEC1
  47  0000              @HCCINIT	.section 'data'
  48  0000              @HCCINIT0	.section 'data'
  49  0000              @BITDATASEC	 .section 'data'
  50  0000              @BITDATASEC1	 .section 'data'
  51  0000              
  52  0000              #pragma debug scope 1 1
  53  0000              	extern __DELAY3:near
  54  0000              	extern __DELAYX3:near
  55  0000              	extern __DELAYX6:near
  56  0000              	extern __DELAYY5:near
  57  0000              	extern __DELAYY3:near
  58  0000              	extern _builtin_holtek_delay_2:byte
  59  0000              @crom	.section 'crom'
"File: sd_interface.ASM  Assembler  Version HGASM0202      Page 2

  60  0000              _LC0:
  61  0000              	db 049h,04eh,020h,020h,020h,020h,020h,00h
  62  0004              _LC1:
  63  0004              	db 0ah,0dh,00h
  64  0006              #pragma debug scope 2 1

  18  0006              #line 18 "E:\1_TOSHIBA\Projects\voltage_stabilizer\DataLoggerJig\proj\test_sd\sd_interface.c"
  18  0000              ___p_send_cmd_constprop_0 .section 'code'
  18  0000              ___p_send_cmd_constprop_0 proc
  18  0000  0007[           local ___p_send_cmd_constprop_0_2 db 7 dup(?)	; 0,7
            00
            ]
  18  0007              #pragma debug array 42 7 5 2
  18  0007              #pragma debug array 42 7 5 2
  18  0007              #pragma debug variable 42 2 ___p_send_cmd_constprop_0_2+0 "c"
  18  0007              #pragma debug variable 8 2 ___p_send_cmd_constprop_0_2+6 "res"
  23  0007              #line 23 "E:\1_TOSHIBA\Projects\voltage_stabilizer\DataLoggerJig\proj\test_sd\sd_interface.c"
  23  0000  2000     E  	call _SPI_cs_disable
  24  0001              #line 24 "E:\1_TOSHIBA\Projects\voltage_stabilizer\DataLoggerJig\proj\test_sd\sd_interface.c"
  24  0001  0FFF        	mov a,255
  24  0002  2000     E  	call _SPI_transmit
  25  0003              #line 25 "E:\1_TOSHIBA\Projects\voltage_stabilizer\DataLoggerJig\proj\test_sd\sd_interface.c"
  25  0003  2000     E  	call _SPI_cs_enable
  26  0004              #line 26 "E:\1_TOSHIBA\Projects\voltage_stabilizer\DataLoggerJig\proj\test_sd\sd_interface.c"
  26  0004  0FFF        	mov a,255
  26  0005  2000     E  	call _SPI_transmit
  29  0006              #line 29 "E:\1_TOSHIBA\Projects\voltage_stabilizer\DataLoggerJig\proj\test_sd\sd_interface.c"
  29  0006  0F77        	mov a,119
  29  0007  2000     E  	call _SPI_transmit
  30  0008              #line 30 "E:\1_TOSHIBA\Projects\voltage_stabilizer\DataLoggerJig\proj\test_sd\sd_interface.c"
  30  0008  0F00        	mov a,0
  30  0009  2000     E  	call _SPI_transmit
  31  000A              #line 31 "E:\1_TOSHIBA\Projects\voltage_stabilizer\DataLoggerJig\proj\test_sd\sd_interface.c"
  31  000A  0F00        	mov a,0
  31  000B  2000     E  	call _SPI_transmit
  32  000C              #line 32 "E:\1_TOSHIBA\Projects\voltage_stabilizer\DataLoggerJig\proj\test_sd\sd_interface.c"
  32  000C  0F00        	mov a,0
  32  000D  2000     E  	call _SPI_transmit
  33  000E              #line 33 "E:\1_TOSHIBA\Projects\voltage_stabilizer\DataLoggerJig\proj\test_sd\sd_interface.c"
  33  000E  0F00        	mov a,0
  33  000F  2000     E  	call _SPI_transmit
  37  0010              #line 37 "E:\1_TOSHIBA\Projects\voltage_stabilizer\DataLoggerJig\proj\test_sd\sd_interface.c"
  37  0010  0F01        	mov a,1
  37  0011  2000     E  	call _SPI_transmit
  37  0012  0F0A        	mov a,10
  37  0013  0080     R  	mov ___p_send_cmd_constprop_0_2[5],a
  37  0014              _L5:
  42  0014              #line 42 "E:\1_TOSHIBA\Projects\voltage_stabilizer\DataLoggerJig\proj\test_sd\sd_interface.c"
  42  0014  0FFF        	mov a,255
  42  0015  2000     E  	call _SPI_transmit
  42  0016  0080     R  	mov ___p_send_cmd_constprop_0_2[6],a
  43  0017              #line 43 "E:\1_TOSHIBA\Projects\voltage_stabilizer\DataLoggerJig\proj\test_sd\sd_interface.c"
  43  0017  3C00     R  	sz ___p_send_cmd_constprop_0_2[6].7
  43  0018  2800     R  	jmp _L2
  43  0019              _L4:
  37  0019              #line 37 "E:\1_TOSHIBA\Projects\voltage_stabilizer\DataLoggerJig\proj\test_sd\sd_interface.c"
  37  0019  1F00     E  	clr ra
  37  001A  2800     R  	jmp _L3
  37  001B              _L2:
  37  001B  1780     R  	sdz ___p_send_cmd_constprop_0_2[5]
"File: sd_interface.c  Assembler  Version HGASM0202      Page 3

  37  001C  2800     R  	jmp _L5
  37  001D  2800     R  	jmp _L4
  37  001E              _L7:
  37  001E              #pragma debug scope 3 2
  37  001E              ;begin block, line: 37.-1
  45  001E              #line 45 "E:\1_TOSHIBA\Projects\voltage_stabilizer\DataLoggerJig\proj\test_sd\sd_interface.c"
  45  001E  3855        	snz [85].0
  45  001F  2800     R  	jmp _L7
  45  0020  0700     E  	mov a,rb
  45  0021  00D9        	mov [89],a
  45  0022  1480     E  	inc ra
  45  0023              _L3:
  45  0023  0F00     R  	mov a,low offset _LC0
  45  0024  0300     E  	add a,ra
  45  0025  0083        	mov mp,a
  45  0026  0F00     R  	mov a,high offset _LC0
  45  0027  1F01        	clr sbp
  45  0028  1381        	adcm a,sbp
  45  0029  2000     E  	call _Crom2Prom
  45  002A  0080     E  	mov rb,a
  45  002B  1080     E  	sz rb
  45  002C  2800     R  	jmp _L7
  45  002D              _L10:
  45  002D  3855        	snz [85].0
  45  002E  2800     R  	jmp _L10
  45  002F  1F59        	clr [89]
  45  0030              #pragma debug scope 2 1
  46  0030              #line 46 "E:\1_TOSHIBA\Projects\voltage_stabilizer\DataLoggerJig\proj\test_sd\sd_interface.c"
  46  0030  0F00     R  	mov a,low offset ___p_send_cmd_constprop_0_2
  46  0031  0080     E  	mov _itoa_2[2],a
  46  0032  0F00     R  	mov a,high offset ___p_send_cmd_constprop_0_2
  46  0033  0080     E  	mov _itoa_2[3],a
  46  0034  0700     R  	mov a,___p_send_cmd_constprop_0_2[6]
  46  0035  0080     E  	mov _itoa_2[0],a
  46  0036  1F00     E  	clr _itoa_2[1]
  46  0037  2000     E  	call _itoa
  46  0038              #pragma debug scope 4 2
  46  0038              ;begin block, line: 46.-1
  47  0038              #line 47 "E:\1_TOSHIBA\Projects\voltage_stabilizer\DataLoggerJig\proj\test_sd\sd_interface.c"
  47  0038  1F00     E  	clr ra
  47  0039              _L11:
  47  0039  0F00     R  	mov a,low offset ___p_send_cmd_constprop_0_2
  47  003A  0080     E  	mov rb,a
  47  003B  0F00     R  	mov a,high offset ___p_send_cmd_constprop_0_2
  47  003C  0080     E  	mov rc,a
  47  003D  0700     E  	mov a,ra
  47  003E  0300     E  	add a,rb
  47  003F  0083        	mov mp,a
  47  0040  1F05        	clr acc
  47  0041  1300     E  	adc a,rc
  47  0042  0081        	mov sbp,a
  47  0043  2000     E  	call _Crom2Prom
  47  0044  0080     E  	mov rb,a
  47  0045  1080     E  	sz rb
  47  0046  2800     R  	jmp _LI1
  47  0047  2800     R  	jmp _L16
  47  0048              _LI1:
  47  0048              _L13:
  47  0048  3855        	snz [85].0
  47  0049  2800     R  	jmp _L13
"File: sd_interface.c  Assembler  Version HGASM0202      Page 4

  47  004A  0700     E  	mov a,rb
  47  004B  00D9        	mov [89],a
  47  004C  1480     E  	inc ra
  47  004D  2800     R  	jmp _L11
  47  004E              _L16:
  47  004E  3855        	snz [85].0
  47  004F  2800     R  	jmp _L16
  47  0050  1F59        	clr [89]
  47  0051              #pragma debug scope 2 1
  47  0051              #pragma debug scope 5 2
  47  0051              ;begin block, line: 47.-1
  48  0051              #line 48 "E:\1_TOSHIBA\Projects\voltage_stabilizer\DataLoggerJig\proj\test_sd\sd_interface.c"
  48  0051  1F00     E  	clr ra
  48  0052              _L17:
  48  0052  0F00     R  	mov a,low offset _LC1
  48  0053  0300     E  	add a,ra
  48  0054  0083        	mov mp,a
  48  0055  0F00     R  	mov a,high offset _LC1
  48  0056  1F01        	clr sbp
  48  0057  1381        	adcm a,sbp
  48  0058  2000     E  	call _Crom2Prom
  48  0059  0080     E  	mov rb,a
  48  005A  1080     E  	sz rb
  48  005B  2800     R  	jmp _LI2
  48  005C  2800     R  	jmp _L22
  48  005D              _LI2:
  48  005D              _L19:
  48  005D  3855        	snz [85].0
  48  005E  2800     R  	jmp _L19
  48  005F  0700     E  	mov a,rb
  48  0060  00D9        	mov [89],a
  48  0061  1480     E  	inc ra
  48  0062  2800     R  	jmp _L17
  48  0063              _L22:
  48  0063  3855        	snz [85].0
  48  0064  2800     R  	jmp _L22
  48  0065  1F59        	clr [89]
  48  0066              #pragma debug scope 2 1
  51  0066              #line 51 "E:\1_TOSHIBA\Projects\voltage_stabilizer\DataLoggerJig\proj\test_sd\sd_interface.c"
  51  0066  0700     R  	mov a,___p_send_cmd_constprop_0_2[6]
  51  0067  0003        	ret
  51  0068              ___p_send_cmd_constprop_0 endp
  51  0068              #line 51 "E:\1_TOSHIBA\Projects\voltage_stabilizer\DataLoggerJig\proj\test_sd\sd_interface.c"
  51  0068              #pragma debug scope 1 1
  51  0068              #pragma debug scope 6 1
  55  0068              #line 55 "E:\1_TOSHIBA\Projects\voltage_stabilizer\DataLoggerJig\proj\test_sd\sd_interface.c"
  55  0000              _send_cmd .section 'code'
  55  0000              _send_cmd proc
  55  0000  000C[           local _send_cmd_2 db 12 dup(?)	; 4,8
            00
            ]
  55  0000  0080     E  	mov ra,a
  55  0001  0080     R  	mov _send_cmd_2[9],a
  55  0002              #pragma debug variable 8 6 _send_cmd_2+9 "cmd"
  55  0002              #pragma debug variable 14 6 _send_cmd_2+0 "arg"
  55  0002              #pragma debug array 43 7 5 6
  55  0002              #pragma debug array 43 7 5 6
  55  0002              #pragma debug variable 43 6 _send_cmd_2+4 "c"
  59  0002              #line 59 "E:\1_TOSHIBA\Projects\voltage_stabilizer\DataLoggerJig\proj\test_sd\sd_interface.c"
  59  0002  3800     E  	snz ra.7
"File: sd_interface.c  Assembler  Version HGASM0202      Page 5

  59  0003  2800     R  	jmp _L28
  61  0004              #line 61 "E:\1_TOSHIBA\Projects\voltage_stabilizer\DataLoggerJig\proj\test_sd\sd_interface.c"
  61  0004  2000     R  	call ___p_send_cmd_constprop_0
  61  0005  0080     E  	mov ra,a
  62  0006              #line 62 "E:\1_TOSHIBA\Projects\voltage_stabilizer\DataLoggerJig\proj\test_sd\sd_interface.c"
  62  0006  0F01        	mov a,1
  62  0007  0200     E  	sub a,ra
  62  0008  380A        	snz c
  62  0009  2800     R  	jmp _L29
  60  000A              #line 60 "E:\1_TOSHIBA\Projects\voltage_stabilizer\DataLoggerJig\proj\test_sd\sd_interface.c"
  60  000A  3400     R  	clr _send_cmd_2[9].7
  60  000B              _L28:
  66  000B              #line 66 "E:\1_TOSHIBA\Projects\voltage_stabilizer\DataLoggerJig\proj\test_sd\sd_interface.c"
  66  000B  2000     E  	call _SPI_cs_disable
  67  000C              #line 67 "E:\1_TOSHIBA\Projects\voltage_stabilizer\DataLoggerJig\proj\test_sd\sd_interface.c"
  67  000C  0FFF        	mov a,255
  67  000D  2000     E  	call _SPI_transmit
  68  000E              #line 68 "E:\1_TOSHIBA\Projects\voltage_stabilizer\DataLoggerJig\proj\test_sd\sd_interface.c"
  68  000E  2000     E  	call _SPI_cs_enable
  69  000F              #line 69 "E:\1_TOSHIBA\Projects\voltage_stabilizer\DataLoggerJig\proj\test_sd\sd_interface.c"
  69  000F  0FFF        	mov a,255
  69  0010  2000     E  	call _SPI_transmit
  72  0011              #line 72 "E:\1_TOSHIBA\Projects\voltage_stabilizer\DataLoggerJig\proj\test_sd\sd_interface.c"
  72  0011  0700     R  	mov a,_send_cmd_2[9]
  72  0012  0080     E  	mov ra,a
  72  0013  0700     E  	mov a,ra
  72  0014  2000     E  	call _SPI_transmit
  73  0015              #line 73 "E:\1_TOSHIBA\Projects\voltage_stabilizer\DataLoggerJig\proj\test_sd\sd_interface.c"
  73  0015  0700     R  	mov a,_send_cmd_2[0]
  73  0016  0080     E  	mov rd,a
  73  0017  0700     R  	mov a,_send_cmd_2[1]
  73  0018  0080     E  	mov re,a
  73  0019  0700     R  	mov a,_send_cmd_2[2]
  73  001A  0080     E  	mov rf,a
  73  001B  0700     R  	mov a,_send_cmd_2[3]
  73  001C  0080     E  	mov rg,a
  73  001D  0700     E  	mov a,rg
  73  001E  0080     E  	mov rd,a
  73  001F  1F00     E  	clr rg
  73  0020  1F00     E  	clr rf
  73  0021  1F00     E  	clr re
  73  0022  0700     E  	mov a,rd
  73  0023  2000     E  	call _SPI_transmit
  74  0024              #line 74 "E:\1_TOSHIBA\Projects\voltage_stabilizer\DataLoggerJig\proj\test_sd\sd_interface.c"
  74  0024  0700     R  	mov a,_send_cmd_2[0]
  74  0025  0080     E  	mov rd,a
  74  0026  0700     R  	mov a,_send_cmd_2[1]
  74  0027  0080     E  	mov re,a
  74  0028  0700     R  	mov a,_send_cmd_2[2]
  74  0029  0080     E  	mov rf,a
  74  002A  0700     R  	mov a,_send_cmd_2[3]
  74  002B  0080     E  	mov rg,a
  74  002C  0700     E  	mov a,rf
  74  002D  0080     E  	mov rd,a
  74  002E  0700     E  	mov a,rg
  74  002F  0080     E  	mov re,a
  74  0030  1F00     E  	clr rg
  74  0031  1F00     E  	clr rf
  74  0032  0700     E  	mov a,rd
  74  0033  2000     E  	call _SPI_transmit
"File: sd_interface.c  Assembler  Version HGASM0202      Page 6

  75  0034              #line 75 "E:\1_TOSHIBA\Projects\voltage_stabilizer\DataLoggerJig\proj\test_sd\sd_interface.c"
  75  0034  0700     R  	mov a,_send_cmd_2[0]
  75  0035  0080     E  	mov rd,a
  75  0036  0700     R  	mov a,_send_cmd_2[1]
  75  0037  0080     E  	mov re,a
  75  0038  0700     R  	mov a,_send_cmd_2[2]
  75  0039  0080     E  	mov rf,a
  75  003A  0700     R  	mov a,_send_cmd_2[3]
  75  003B  0080     E  	mov rg,a
  75  003C  0700     E  	mov a,re
  75  003D  0080     E  	mov rd,a
  75  003E  0700     E  	mov a,rf
  75  003F  0080     E  	mov re,a
  75  0040  0700     E  	mov a,rg
  75  0041  0080     E  	mov rf,a
  75  0042  1F00     E  	clr rg
  75  0043  0700     E  	mov a,rd
  75  0044  2000     E  	call _SPI_transmit
  76  0045              #line 76 "E:\1_TOSHIBA\Projects\voltage_stabilizer\DataLoggerJig\proj\test_sd\sd_interface.c"
  76  0045  0700     R  	mov a,_send_cmd_2[0]
  76  0046  2000     E  	call _SPI_transmit
  78  0047              #line 78 "E:\1_TOSHIBA\Projects\voltage_stabilizer\DataLoggerJig\proj\test_sd\sd_interface.c"
  78  0047  0700     R  	mov a,_send_cmd_2[9]
  78  0048  0A40        	sub a,64
  78  0049  3D0A        	sz z
  78  004A  2800     R  	jmp _L47
  78  004B  0A08        	sub a,(72)-(64)
  78  004C  3D0A        	sz z
  78  004D  2800     R  	jmp _L48
  77  004E              #line 77 "E:\1_TOSHIBA\Projects\voltage_stabilizer\DataLoggerJig\proj\test_sd\sd_interface.c"
  77  004E  0F01        	mov a,1
  77  004F  0080     E  	mov ra,a
  77  0050  2800     R  	jmp _L30
  77  0051              _L47:
  78  0051              #line 78 "E:\1_TOSHIBA\Projects\voltage_stabilizer\DataLoggerJig\proj\test_sd\sd_interface.c"
  78  0051  0F95        	mov a,149
  78  0052  0080     E  	mov ra,a
  78  0053  2800     R  	jmp _L30
  78  0054              _L48:
  79  0054              #line 79 "E:\1_TOSHIBA\Projects\voltage_stabilizer\DataLoggerJig\proj\test_sd\sd_interface.c"
  79  0054  0F87        	mov a,135
  79  0055  0080     E  	mov ra,a
  79  0056              _L30:
  80  0056              #line 80 "E:\1_TOSHIBA\Projects\voltage_stabilizer\DataLoggerJig\proj\test_sd\sd_interface.c"
  80  0056  0700     E  	mov a,ra
  80  0057  2000     E  	call _SPI_transmit
  80  0058  0F0A        	mov a,10
  80  0059  0080     R  	mov _send_cmd_2[11],a
  80  005A              _L34:
  85  005A              #line 85 "E:\1_TOSHIBA\Projects\voltage_stabilizer\DataLoggerJig\proj\test_sd\sd_interface.c"
  85  005A  0FFF        	mov a,255
  85  005B  2000     E  	call _SPI_transmit
  85  005C  0080     R  	mov _send_cmd_2[10],a
  86  005D              #line 86 "E:\1_TOSHIBA\Projects\voltage_stabilizer\DataLoggerJig\proj\test_sd\sd_interface.c"
  86  005D  3C00     R  	sz _send_cmd_2[10].7
  86  005E  2800     R  	jmp _L31
  86  005F              _L33:
  88  005F              #line 88 "E:\1_TOSHIBA\Projects\voltage_stabilizer\DataLoggerJig\proj\test_sd\sd_interface.c"
  88  005F  0F00     R  	mov a,low offset _send_cmd_2
  88  0060  0080     E  	mov ra,a
"File: sd_interface.c  Assembler  Version HGASM0202      Page 7

  88  0061  0F00     R  	mov a,high offset _send_cmd_2
  88  0062  0080     E  	mov rb,a
  88  0063  0F04        	mov a,4
  88  0064  0300     E  	add a,ra
  88  0065  0080     E  	mov _itoa_2[2],a
  88  0066  0F00        	mov a,0
  88  0067  1300     E  	adc a,rb
  88  0068  0080     E  	mov _itoa_2[3],a
  88  0069  0700     R  	mov a,_send_cmd_2[10]
  88  006A  0080     E  	mov _itoa_2[0],a
  88  006B  1F00     E  	clr _itoa_2[1]
  88  006C  2000     E  	call _itoa
  88  006D              #pragma debug scope 7 6
  88  006D              ;begin block, line: 88.-1
  89  006D              #line 89 "E:\1_TOSHIBA\Projects\voltage_stabilizer\DataLoggerJig\proj\test_sd\sd_interface.c"
  89  006D  1F00     E  	clr ra
  89  006E  0F00     R  	mov a,low offset _send_cmd_2
  89  006F  0080     E  	mov rb,a
  89  0070  0F00     R  	mov a,high offset _send_cmd_2
  89  0071  0080     E  	mov rc,a
  89  0072  0F04        	mov a,4
  89  0073  0380     E  	addm a,rb
  89  0074  0F00        	mov a,0
  89  0075  1380     E  	adcm a,rc
  89  0076  2800     R  	jmp _L32
  89  0077              _L31:
  89  0077              #pragma debug scope 6 1
  89  0077  1780     R  	sdz _send_cmd_2[11]
  89  0078  2800     R  	jmp _L34
  89  0079  2800     R  	jmp _L33
  89  007A              _L36:
  89  007A              #pragma debug scope 8 6
  89  007A              ;begin block, line: 89.-1
  89  007A  3855        	snz [85].0
  89  007B  2800     R  	jmp _L36
  89  007C  0700     E  	mov a,rd
  89  007D  00D9        	mov [89],a
  89  007E  1480     E  	inc ra
  89  007F              _L32:
  89  007F  0700     E  	mov a,ra
  89  0080  0300     E  	add a,rb
  89  0081  0083        	mov mp,a
  89  0082  1F05        	clr acc
  89  0083  1300     E  	adc a,rc
  89  0084  0081        	mov sbp,a
  89  0085  2000     E  	call _Crom2Prom
  89  0086  0080     E  	mov rd,a
  89  0087  1080     E  	sz rd
  89  0088  2800     R  	jmp _L36
  89  0089              _L39:
  89  0089  3855        	snz [85].0
  89  008A  2800     R  	jmp _L39
  89  008B  1F59        	clr [89]
  89  008C              #pragma debug scope 6 1
  89  008C              #pragma debug scope 9 6
  89  008C              ;begin block, line: 89.-1
  90  008C              #line 90 "E:\1_TOSHIBA\Projects\voltage_stabilizer\DataLoggerJig\proj\test_sd\sd_interface.c"
  90  008C  1F00     E  	clr ra
  90  008D              _L40:
  90  008D  0F00     R  	mov a,low offset _LC1
"File: sd_interface.c  Assembler  Version HGASM0202      Page 8

  90  008E  0300     E  	add a,ra
  90  008F  0083        	mov mp,a
  90  0090  0F00     R  	mov a,high offset _LC1
  90  0091  1F01        	clr sbp
  90  0092  1381        	adcm a,sbp
  90  0093  2000     E  	call _Crom2Prom
  90  0094  0080     E  	mov rb,a
  90  0095  1080     E  	sz rb
  90  0096  2800     R  	jmp _LI3
  90  0097  2800     R  	jmp _L45
  90  0098              _LI3:
  90  0098              _L42:
  90  0098  3855        	snz [85].0
  90  0099  2800     R  	jmp _L42
  90  009A  0700     E  	mov a,rb
  90  009B  00D9        	mov [89],a
  90  009C  1480     E  	inc ra
  90  009D  2800     R  	jmp _L40
  90  009E              _L45:
  90  009E  3855        	snz [85].0
  90  009F  2800     R  	jmp _L45
  90  00A0  1F59        	clr [89]
  90  00A1              #pragma debug scope 6 1
  92  00A1              #line 92 "E:\1_TOSHIBA\Projects\voltage_stabilizer\DataLoggerJig\proj\test_sd\sd_interface.c"
  92  00A1  0700     R  	mov a,_send_cmd_2[10]
  92  00A2  0080     E  	mov ra,a
  92  00A3              _L29:
  93  00A3              #line 93 "E:\1_TOSHIBA\Projects\voltage_stabilizer\DataLoggerJig\proj\test_sd\sd_interface.c"
  93  00A3  0700     E  	mov a,ra
  93  00A4  0003        	ret
  93  00A5              _send_cmd endp
  93  00A5              #line 93 "E:\1_TOSHIBA\Projects\voltage_stabilizer\DataLoggerJig\proj\test_sd\sd_interface.c"
  93  00A5              #pragma debug scope 1 1
  93  00A5              public _delay_100us
  93  00A5              #pragma debug scope 10 1
  13  00A5              #line 13 "E:\1_TOSHIBA\Projects\voltage_stabilizer\DataLoggerJig\proj\test_sd\sd_interface.c"
  13  0000              _delay_100us .section 'code'
  13  0000              _delay_100us proc
  14  0000              #line 14 "E:\1_TOSHIBA\Projects\voltage_stabilizer\DataLoggerJig\proj\test_sd\sd_interface.c"
  14  0000              ;# 14 "E:\1_TOSHIBA\Projects\voltage_stabilizer\DataLoggerJig\proj\test_sd\sd_interface.c" 1
  14  0000              	IF 200>263690
  14  0000              ;# 14 "E:\1_TOSHIBA\Projects\voltage_stabilizer\DataLoggerJig\proj\test_sd\sd_interface.c" 1
  14  0000              	ERRMESSAGE 'the value 200of the argument exceeds the maxinum 263690'
  14  0000              	ENDIF
  14  0000              ;# 14 "E:\1_TOSHIBA\Projects\voltage_stabilizer\DataLoggerJig\proj\test_sd\sd_interface.c" 1
  14  0000              	IF 200<0
  14  0000              ;# 14 "E:\1_TOSHIBA\Projects\voltage_stabilizer\DataLoggerJig\proj\test_sd\sd_interface.c" 1
  14  0000              	ERRMESSAGE 'the value 200 of the argument exceeds the mininum 0'
  14  0000              	ENDIF
  14  0000              ;# 14 "E:\1_TOSHIBA\Projects\voltage_stabilizer\DataLoggerJig\proj\test_sd\sd_interface.c" 1
  14  0000              	IF 200==0
  14  0000              ;# 14 "E:\1_TOSHIBA\Projects\voltage_stabilizer\DataLoggerJig\proj\test_sd\sd_interface.c" 1
  14  0000              	JMP $
  14  0000              	ENDIF
  14  0000              ;# 14 "E:\1_TOSHIBA\Projects\voltage_stabilizer\DataLoggerJig\proj\test_sd\sd_interface.c" 1
  14  0000              	IF 200==1
  14  0000              ;# 14 "E:\1_TOSHIBA\Projects\voltage_stabilizer\DataLoggerJig\proj\test_sd\sd_interface.c" 1
  14  0000              	NOP
  14  0000              	ENDIF
  14  0000              ;# 14 "E:\1_TOSHIBA\Projects\voltage_stabilizer\DataLoggerJig\proj\test_sd\sd_interface.c" 1
"File: sd_interface.c  Assembler  Version HGASM0202      Page 9

  14  0000              	IF 200==2
  14  0000              ;# 14 "E:\1_TOSHIBA\Projects\voltage_stabilizer\DataLoggerJig\proj\test_sd\sd_interface.c" 1
  14  0000              	NOP
  14  0000              ;# 14 "E:\1_TOSHIBA\Projects\voltage_stabilizer\DataLoggerJig\proj\test_sd\sd_interface.c" 1
  14  0000              	NOP
  14  0000              	ENDIF
  14  0000              ;# 14 "E:\1_TOSHIBA\Projects\voltage_stabilizer\DataLoggerJig\proj\test_sd\sd_interface.c" 1
  14  0000              	IF 200==3
  14  0000              ;# 14 "E:\1_TOSHIBA\Projects\voltage_stabilizer\DataLoggerJig\proj\test_sd\sd_interface.c" 1
  14  0000              	NOP
  14  0000              ;# 14 "E:\1_TOSHIBA\Projects\voltage_stabilizer\DataLoggerJig\proj\test_sd\sd_interface.c" 1
  14  0000              	NOP
  14  0000              ;# 14 "E:\1_TOSHIBA\Projects\voltage_stabilizer\DataLoggerJig\proj\test_sd\sd_interface.c" 1
  14  0000              	NOP
  14  0000              	ENDIF
  14  0000              ;# 14 "E:\1_TOSHIBA\Projects\voltage_stabilizer\DataLoggerJig\proj\test_sd\sd_interface.c" 1
  14  0000              	IF (200<8) AND (200>3)
  14  0000              ;# 14 "E:\1_TOSHIBA\Projects\voltage_stabilizer\DataLoggerJig\proj\test_sd\sd_interface.c" 1
  14  0000              	CALL __DELAY3 + 7 -200
  14  0000              	ENDIF
  14  0000              ;# 14 "E:\1_TOSHIBA\Projects\voltage_stabilizer\DataLoggerJig\proj\test_sd\sd_interface.c" 1
  14  0000              	IF (200< 0404h) AND (200>7)
  14  0000              ;# 14 "E:\1_TOSHIBA\Projects\voltage_stabilizer\DataLoggerJig\proj\test_sd\sd_interface.c" 1
  14  0000  0F31        	MOV A,200/4-1
  14  0001              ;# 14 "E:\1_TOSHIBA\Projects\voltage_stabilizer\DataLoggerJig\proj\test_sd\sd_interface.c" 1
  14  0001  2000     E  	CALL __DELAYX3 + 3 -(200 MOD 4)
  14  0002              	ENDIF
  14  0002              ;# 14 "E:\1_TOSHIBA\Projects\voltage_stabilizer\DataLoggerJig\proj\test_sd\sd_interface.c" 1
  14  0002              	IF (200< 0x40B) AND (200> 0403h)
  14  0002              ;# 14 "E:\1_TOSHIBA\Projects\voltage_stabilizer\DataLoggerJig\proj\test_sd\sd_interface.c" 1
  14  0002              	MOV A,0 
  14  0002              ;# 14 "E:\1_TOSHIBA\Projects\voltage_stabilizer\DataLoggerJig\proj\test_sd\sd_interface.c" 1
  14  0002              	CALL __DELAYX6 + 0x40a -200
  14  0002              	ENDIF
  14  0002              ;# 14 "E:\1_TOSHIBA\Projects\voltage_stabilizer\DataLoggerJig\proj\test_sd\sd_interface.c" 1
  14  0002              	IF (200 >= 0x40b) AND ((((200-9)%0402h)/4+1)>256)
  14  0002              ;# 14 "E:\1_TOSHIBA\Projects\voltage_stabilizer\DataLoggerJig\proj\test_sd\sd_interface.c" 1
  14  0002              	MOV A,(200-9)/0402h
  14  0002              ;# 14 "E:\1_TOSHIBA\Projects\voltage_stabilizer\DataLoggerJig\proj\test_sd\sd_interface.c" 1
  14  0002              	MOV _builtin_holtek_delay_2,A
  14  0002              ;# 14 "E:\1_TOSHIBA\Projects\voltage_stabilizer\DataLoggerJig\proj\test_sd\sd_interface.c" 1
  14  0002              	MOV A,0
  14  0002              ;# 14 "E:\1_TOSHIBA\Projects\voltage_stabilizer\DataLoggerJig\proj\test_sd\sd_interface.c" 1
  14  0002              	CALL __DELAYY5 +5- (((200-9)%0402h)%6)
  14  0002              	ENDIF
  14  0002              ;# 14 "E:\1_TOSHIBA\Projects\voltage_stabilizer\DataLoggerJig\proj\test_sd\sd_interface.c" 1
  14  0002              	IF (200 >= 0x40b) AND ((((200-9)%0402h)/4+1)<=256)
  14  0002              ;# 14 "E:\1_TOSHIBA\Projects\voltage_stabilizer\DataLoggerJig\proj\test_sd\sd_interface.c" 1
  14  0002              	MOV A,(200-9)/0402h
  14  0002              ;# 14 "E:\1_TOSHIBA\Projects\voltage_stabilizer\DataLoggerJig\proj\test_sd\sd_interface.c" 1
  14  0002              	MOV _builtin_holtek_delay_2,A
  14  0002              ;# 14 "E:\1_TOSHIBA\Projects\voltage_stabilizer\DataLoggerJig\proj\test_sd\sd_interface.c" 1
  14  0002              	MOV A,((200-9)%0402h)/4+1
  14  0002              ;# 14 "E:\1_TOSHIBA\Projects\voltage_stabilizer\DataLoggerJig\proj\test_sd\sd_interface.c" 1
  14  0002              	CALL __DELAYY3 +3-(((200-9)%0402h)%4)
  14  0002              	ENDIF
  14  0002  0003        	ret
  14  0003              _delay_100us endp
  14  0003              #line 14 "E:\1_TOSHIBA\Projects\voltage_stabilizer\DataLoggerJig\proj\test_sd\sd_interface.c"
  14  0003              #pragma debug scope 1 1
"File: sd_interface.c  Assembler  Version HGASM0202      Page 10

  14  0003              public _disk_initialize
  14  0003              #pragma debug scope 11 1
  98  0003              #line 98 "E:\1_TOSHIBA\Projects\voltage_stabilizer\DataLoggerJig\proj\test_sd\sd_interface.c"
  98  0000              _disk_initialize .section 'code'
  98  0000              _disk_initialize proc
  98  0000  000E[           local _disk_initialize_2 db 14 dup(?)	; 0,14
            00
            ]
  98  000E              #pragma debug variable 8 11 _disk_initialize_2+13 "cmd"
  98  000E              #pragma debug variable 8 11 _disk_initialize_2+9 "ty"
  98  000E              #pragma debug array 44 8 4 11
  98  000E              #pragma debug array 44 8 4 11
  98  000E              #pragma debug variable 44 11 _disk_initialize_2+5 "ocr"
  98  000E              #pragma debug array 45 7 5 11
  98  000E              #pragma debug array 45 7 5 11
  98  000E              #pragma debug variable 45 11 _disk_initialize_2+0 "c"
 107  000E              #line 107 "E:\1_TOSHIBA\Projects\voltage_stabilizer\DataLoggerJig\proj\test_sd\sd_interface.c"
 107  0000  2000     E  	call _SPI_init
 108  0001              #line 108 "E:\1_TOSHIBA\Projects\voltage_stabilizer\DataLoggerJig\proj\test_sd\sd_interface.c"
 108  0001  2000     E  	call _SPI_cs_disable
 108  0002  0F0A        	mov a,10
 108  0003  0080     R  	mov _disk_initialize_2[9],a
 108  0004              _L54:
 109  0004              #line 109 "E:\1_TOSHIBA\Projects\voltage_stabilizer\DataLoggerJig\proj\test_sd\sd_interface.c"
 109  0004  0FFF        	mov a,255
 109  0005  2000     E  	call _SPI_transmit
 109  0006  1780     R  	sdz _disk_initialize_2[9]
 109  0007  2800     R  	jmp _L54
 112  0008              #line 112 "E:\1_TOSHIBA\Projects\voltage_stabilizer\DataLoggerJig\proj\test_sd\sd_interface.c"
 112  0008  1F00     R  	clr _send_cmd_2[0]
 112  0009  1F00     R  	clr _send_cmd_2[1]
 112  000A  1F00     R  	clr _send_cmd_2[2]
 112  000B  1F00     R  	clr _send_cmd_2[3]
 112  000C  0F40        	mov a,64
 112  000D  2000     R  	call _send_cmd
 112  000E  0080     E  	mov ra,a
 112  000F  1700     E  	sdza ra
 112  0010  2800     R  	jmp _L91
 113  0011              #line 113 "E:\1_TOSHIBA\Projects\voltage_stabilizer\DataLoggerJig\proj\test_sd\sd_interface.c"
 113  0011  0FAA        	mov a,-86
 113  0012  0080     R  	mov _send_cmd_2[0],a
 113  0013  0F01        	mov a,1
 113  0014  0080     R  	mov _send_cmd_2[1],a
 113  0015  1F00     R  	clr _send_cmd_2[2]
 113  0016  1F00     R  	clr _send_cmd_2[3]
 113  0017  0F48        	mov a,72
 113  0018  2000     R  	call _send_cmd
 113  0019  0080     E  	mov ra,a
 113  001A  1700     E  	sdza ra
 113  001B  2800     R  	jmp _L57
 113  001C  0F04        	mov a,4
 113  001D  0080     R  	mov _disk_initialize_2[9],a
 113  001E  1F00     R  	clr _disk_initialize_2[11]
 113  001F              _L59:
 114  001F              #line 114 "E:\1_TOSHIBA\Projects\voltage_stabilizer\DataLoggerJig\proj\test_sd\sd_interface.c"
 114  001F  0FFF        	mov a,255
 114  0020  2000     E  	call _SPI_transmit
 114  0021  0080     E  	mov ra,a
 114  0022  0F00     R  	mov a,low offset _disk_initialize_2
 114  0023  0080     E  	mov rb,a
"File: sd_interface.c  Assembler  Version HGASM0202      Page 11

 114  0024  0F00     R  	mov a,high offset _disk_initialize_2
 114  0025  0080     E  	mov rc,a
 114  0026  0F05        	mov a,5
 114  0027  0380     E  	addm a,rb
 114  0028  0F00        	mov a,0
 114  0029  1380     E  	adcm a,rc
 114  002A  0700     R  	mov a,_disk_initialize_2[11]
 114  002B  0300     E  	add a,rb
 114  002C  0083        	mov mp,a
 114  002D  1F05        	clr acc
 114  002E  1300     E  	adc a,rc
 114  002F  0081        	mov sbp,a
 114  0030  0701        	mov a,sbp
 114  0031  0084        	mov bp,a
 114  0032  0700     E  	mov a,ra
 114  0033  0082        	mov ir,a
 114  0034  1480     R  	inc _disk_initialize_2[11]
 114  0035  1780     R  	sdz _disk_initialize_2[9]
 114  0036  2800     R  	jmp _L59
 115  0037              #line 115 "E:\1_TOSHIBA\Projects\voltage_stabilizer\DataLoggerJig\proj\test_sd\sd_interface.c"
 115  0037  1700     R  	sdza _disk_initialize_2[7]
 115  0038  2800     R  	jmp _L91
 115  0039  0700     R  	mov a,_disk_initialize_2[8]
 115  003A  0AAA        	sub a,170
 115  003B  390A        	snz z
 115  003C  2800     R  	jmp _L91
 115  003D  0F10        	mov a,16
 115  003E  0080     R  	mov _disk_initialize_2[9],a
 115  003F  0F27        	mov a,39
 115  0040  0080     R  	mov _disk_initialize_2[10],a
 115  0041              _L61:
 116  0041              #line 116 "E:\1_TOSHIBA\Projects\voltage_stabilizer\DataLoggerJig\proj\test_sd\sd_interface.c"
 116  0041  1F00     R  	clr _send_cmd_2[0]
 116  0042  1F00     R  	clr _send_cmd_2[1]
 116  0043  1F00     R  	clr _send_cmd_2[2]
 116  0044  0F40        	mov a,64
 116  0045  0080     R  	mov _send_cmd_2[3],a
 116  0046  0FE9        	mov a,233
 116  0047  2000     R  	call _send_cmd
 116  0048  0080     E  	mov ra,a
 116  0049  1080     E  	sz ra
 116  004A  2800     R  	jmp _LI4
 116  004B  2800     R  	jmp _L104
 116  004C              _LI4:
 116  004C  2000     R  	call _delay_100us
 116  004D  0FFF        	mov a,255
 116  004E  0380     R  	addm a,_disk_initialize_2[9]
 116  004F  0FFF        	mov a,255
 116  0050  1380     R  	adcm a,_disk_initialize_2[10]
 116  0051  0700     R  	mov a,_disk_initialize_2[9]
 116  0052  0500     R  	or a,_disk_initialize_2[10]
 116  0053  390A        	snz z
 116  0054  2800     R  	jmp _L61
 116  0055  2800     R  	jmp _L91
 116  0056              _L57:
 123  0056              #line 123 "E:\1_TOSHIBA\Projects\voltage_stabilizer\DataLoggerJig\proj\test_sd\sd_interface.c"
 123  0056  1F00     R  	clr _send_cmd_2[0]
 123  0057  1F00     R  	clr _send_cmd_2[1]
 123  0058  1F00     R  	clr _send_cmd_2[2]
 123  0059  1F00     R  	clr _send_cmd_2[3]
"File: sd_interface.c  Assembler  Version HGASM0202      Page 12

 123  005A  0FE9        	mov a,233
 123  005B  2000     R  	call _send_cmd
 123  005C  0080     E  	mov ra,a
 123  005D  0F01        	mov a,1
 123  005E  0200     E  	sub a,ra
 123  005F  380A        	snz c
 123  0060  2800     R  	jmp _L90
 124  0061              #line 124 "E:\1_TOSHIBA\Projects\voltage_stabilizer\DataLoggerJig\proj\test_sd\sd_interface.c"
 124  0061  0F02        	mov a,2
 124  0062  0080     R  	mov _disk_initialize_2[9],a
 124  0063  0FE9        	mov a,233
 124  0064  0080     R  	mov _disk_initialize_2[13],a
 124  0065  2800     R  	jmp _L65
 124  0066              _L90:
 126  0066              #line 126 "E:\1_TOSHIBA\Projects\voltage_stabilizer\DataLoggerJig\proj\test_sd\sd_interface.c"
 126  0066  0F01        	mov a,1
 126  0067  0080     R  	mov _disk_initialize_2[9],a
 126  0068  0F41        	mov a,65
 126  0069  0080     R  	mov _disk_initialize_2[13],a
 126  006A              _L65:
 126  006A  0F10        	mov a,16
 126  006B  0080     R  	mov _disk_initialize_2[11],a
 126  006C  0F27        	mov a,39
 126  006D  0080     R  	mov _disk_initialize_2[12],a
 126  006E              _L66:
 128  006E              #line 128 "E:\1_TOSHIBA\Projects\voltage_stabilizer\DataLoggerJig\proj\test_sd\sd_interface.c"
 128  006E  1F00     R  	clr _send_cmd_2[0]
 128  006F  1F00     R  	clr _send_cmd_2[1]
 128  0070  1F00     R  	clr _send_cmd_2[2]
 128  0071  1F00     R  	clr _send_cmd_2[3]
 128  0072  0700     R  	mov a,_disk_initialize_2[13]
 128  0073  2000     R  	call _send_cmd
 128  0074  0080     E  	mov ra,a
 128  0075  1080     E  	sz ra
 128  0076  2800     R  	jmp _LI5
 128  0077  2800     R  	jmp _L105
 128  0078              _LI5:
 128  0078  2000     R  	call _delay_100us
 128  0079  0FFF        	mov a,255
 128  007A  0380     R  	addm a,_disk_initialize_2[11]
 128  007B  0FFF        	mov a,255
 128  007C  1380     R  	adcm a,_disk_initialize_2[12]
 128  007D  0700     R  	mov a,_disk_initialize_2[11]
 128  007E  0500     R  	or a,_disk_initialize_2[12]
 128  007F  390A        	snz z
 128  0080  2800     R  	jmp _L66
 128  0081  2800     R  	jmp _L91
 128  0082              _L105:
 129  0082              #line 129 "E:\1_TOSHIBA\Projects\voltage_stabilizer\DataLoggerJig\proj\test_sd\sd_interface.c"
 129  0082  1F00     R  	clr _send_cmd_2[0]
 129  0083  0F02        	mov a,2
 129  0084  0080     R  	mov _send_cmd_2[1],a
 129  0085  1F00     R  	clr _send_cmd_2[2]
 129  0086  1F00     R  	clr _send_cmd_2[3]
 129  0087  0F50        	mov a,80
 129  0088  2000     R  	call _send_cmd
 129  0089  0080     E  	mov ra,a
 129  008A  1080     E  	sz ra
 129  008B  2800     R  	jmp _LI6
 129  008C  2800     R  	jmp _L56
"File: sd_interface.c  Assembler  Version HGASM0202      Page 13

 129  008D              _LI6:
 129  008D              _L91:
 130  008D              #line 130 "E:\1_TOSHIBA\Projects\voltage_stabilizer\DataLoggerJig\proj\test_sd\sd_interface.c"
 130  008D  1F00     R  	clr _disk_initialize_2[9]
 130  008E              _L56:
 133  008E              #line 133 "E:\1_TOSHIBA\Projects\voltage_stabilizer\DataLoggerJig\proj\test_sd\sd_interface.c"
 133  008E  0700     R  	mov a,_disk_initialize_2[9]
 133  008F  0080     R  	mov _CardType[0],a
 134  0090              #line 134 "E:\1_TOSHIBA\Projects\voltage_stabilizer\DataLoggerJig\proj\test_sd\sd_interface.c"
 134  0090  2000     E  	call _SPI_cs_disable
 135  0091              #line 135 "E:\1_TOSHIBA\Projects\voltage_stabilizer\DataLoggerJig\proj\test_sd\sd_interface.c"
 135  0091  0FFF        	mov a,255
 135  0092  2000     E  	call _SPI_transmit
 137  0093              #line 137 "E:\1_TOSHIBA\Projects\voltage_stabilizer\DataLoggerJig\proj\test_sd\sd_interface.c"
 137  0093  0F00     R  	mov a,low offset _disk_initialize_2
 137  0094  0080     E  	mov _itoa_2[2],a
 137  0095  0F00     R  	mov a,high offset _disk_initialize_2
 137  0096  0080     E  	mov _itoa_2[3],a
 137  0097  0700     R  	mov a,_disk_initialize_2[9]
 137  0098  0080     E  	mov _itoa_2[0],a
 137  0099  1F00     E  	clr _itoa_2[1]
 137  009A  2000     E  	call _itoa
 137  009B              #pragma debug scope 12 11
 137  009B              ;begin block, line: 137.-1
 138  009B              #line 138 "E:\1_TOSHIBA\Projects\voltage_stabilizer\DataLoggerJig\proj\test_sd\sd_interface.c"
 138  009B  1F00     E  	clr ra
 138  009C              _L69:
 138  009C  0F00     R  	mov a,low offset _LC1
 138  009D  0300     E  	add a,ra
 138  009E  0083        	mov mp,a
 138  009F  0F00     R  	mov a,high offset _LC1
 138  00A0  1F01        	clr sbp
 138  00A1  1381        	adcm a,sbp
 138  00A2  2000     E  	call _Crom2Prom
 138  00A3  0080     E  	mov rb,a
 138  00A4  1080     E  	sz rb
 138  00A5  2800     R  	jmp _LI7
 138  00A6  2800     R  	jmp _L74
 138  00A7              _LI7:
 138  00A7              _L71:
 138  00A7  3855        	snz [85].0
 138  00A8  2800     R  	jmp _L71
 138  00A9  0700     E  	mov a,rb
 138  00AA  00D9        	mov [89],a
 138  00AB  1480     E  	inc ra
 138  00AC  2800     R  	jmp _L69
 138  00AD              _L74:
 138  00AD  3855        	snz [85].0
 138  00AE  2800     R  	jmp _L74
 138  00AF  1F59        	clr [89]
 138  00B0              #pragma debug scope 11 1
 138  00B0              #pragma debug scope 13 11
 138  00B0              ;begin block, line: 138.-1
 139  00B0              #line 139 "E:\1_TOSHIBA\Projects\voltage_stabilizer\DataLoggerJig\proj\test_sd\sd_interface.c"
 139  00B0  1F00     E  	clr ra
 139  00B1              _L75:
 139  00B1  0F00     R  	mov a,low offset _disk_initialize_2
 139  00B2  0080     E  	mov rb,a
 139  00B3  0F00     R  	mov a,high offset _disk_initialize_2
 139  00B4  0080     E  	mov rc,a
"File: sd_interface.c  Assembler  Version HGASM0202      Page 14

 139  00B5  0700     E  	mov a,ra
 139  00B6  0300     E  	add a,rb
 139  00B7  0083        	mov mp,a
 139  00B8  1F05        	clr acc
 139  00B9  1300     E  	adc a,rc
 139  00BA  0081        	mov sbp,a
 139  00BB  2000     E  	call _Crom2Prom
 139  00BC  0080     E  	mov rb,a
 139  00BD  1080     E  	sz rb
 139  00BE  2800     R  	jmp _LI8
 139  00BF  2800     R  	jmp _L80
 139  00C0              _LI8:
 139  00C0              _L77:
 139  00C0  3855        	snz [85].0
 139  00C1  2800     R  	jmp _L77
 139  00C2  0700     E  	mov a,rb
 139  00C3  00D9        	mov [89],a
 139  00C4  1480     E  	inc ra
 139  00C5  2800     R  	jmp _L75
 139  00C6              _L80:
 139  00C6  3855        	snz [85].0
 139  00C7  2800     R  	jmp _L80
 139  00C8  1F59        	clr [89]
 139  00C9              #pragma debug scope 11 1
 139  00C9              #pragma debug scope 14 11
 139  00C9              ;begin block, line: 139.-1
 140  00C9              #line 140 "E:\1_TOSHIBA\Projects\voltage_stabilizer\DataLoggerJig\proj\test_sd\sd_interface.c"
 140  00C9  1F00     E  	clr ra
 140  00CA              _L81:
 140  00CA  0F00     R  	mov a,low offset _LC1
 140  00CB  0300     E  	add a,ra
 140  00CC  0083        	mov mp,a
 140  00CD  0F00     R  	mov a,high offset _LC1
 140  00CE  1F01        	clr sbp
 140  00CF  1381        	adcm a,sbp
 140  00D0  2000     E  	call _Crom2Prom
 140  00D1  0080     E  	mov rb,a
 140  00D2  1080     E  	sz rb
 140  00D3  2800     R  	jmp _LI9
 140  00D4  2800     R  	jmp _L86
 140  00D5              _LI9:
 140  00D5              _L83:
 140  00D5  3855        	snz [85].0
 140  00D6  2800     R  	jmp _L83
 140  00D7  0700     E  	mov a,rb
 140  00D8  00D9        	mov [89],a
 140  00D9  1480     E  	inc ra
 140  00DA  2800     R  	jmp _L81
 140  00DB              _L86:
 140  00DB  3855        	snz [85].0
 140  00DC  2800     R  	jmp _L86
 140  00DD  1F59        	clr [89]
 140  00DE              #pragma debug scope 11 1
 141  00DE              #line 141 "E:\1_TOSHIBA\Projects\voltage_stabilizer\DataLoggerJig\proj\test_sd\sd_interface.c"
 141  00DE  0F01        	mov a,1
 141  00DF  0080     E  	mov ra,a
 141  00E0  1080     R  	sz _disk_initialize_2[9]
 141  00E1  2800     R  	jmp _LI10
 141  00E2  2800     R  	jmp _L95
 141  00E3              _LI10:
"File: sd_interface.c  Assembler  Version HGASM0202      Page 15

 141  00E3  1F00     E  	clr ra
 141  00E4  2800     R  	jmp _L95
 141  00E5              _L104:
 117  00E5              #line 117 "E:\1_TOSHIBA\Projects\voltage_stabilizer\DataLoggerJig\proj\test_sd\sd_interface.c"
 117  00E5  1F00     R  	clr _send_cmd_2[0]
 117  00E6  1F00     R  	clr _send_cmd_2[1]
 117  00E7  1F00     R  	clr _send_cmd_2[2]
 117  00E8  1F00     R  	clr _send_cmd_2[3]
 117  00E9  0F7A        	mov a,122
 117  00EA  2000     R  	call _send_cmd
 117  00EB  0080     E  	mov ra,a
 117  00EC  1080     E  	sz ra
 117  00ED  2800     R  	jmp _L91
 117  00EE  0F04        	mov a,4
 117  00EF  0080     R  	mov _disk_initialize_2[9],a
 117  00F0  1F00     R  	clr _disk_initialize_2[11]
 117  00F1              _L88:
 118  00F1              #line 118 "E:\1_TOSHIBA\Projects\voltage_stabilizer\DataLoggerJig\proj\test_sd\sd_interface.c"
 118  00F1  0FFF        	mov a,255
 118  00F2  2000     E  	call _SPI_transmit
 118  00F3  0080     E  	mov ra,a
 118  00F4  0F00     R  	mov a,low offset _disk_initialize_2
 118  00F5  0080     E  	mov rb,a
 118  00F6  0F00     R  	mov a,high offset _disk_initialize_2
 118  00F7  0080     E  	mov rc,a
 118  00F8  0F05        	mov a,5
 118  00F9  0380     E  	addm a,rb
 118  00FA  0F00        	mov a,0
 118  00FB  1380     E  	adcm a,rc
 118  00FC  0700     R  	mov a,_disk_initialize_2[11]
 118  00FD  0300     E  	add a,rb
 118  00FE  0083        	mov mp,a
 118  00FF  1F05        	clr acc
 118  0100  1300     E  	adc a,rc
 118  0101  0081        	mov sbp,a
 118  0102  0701        	mov a,sbp
 118  0103  0084        	mov bp,a
 118  0104  0700     E  	mov a,ra
 118  0105  0082        	mov ir,a
 118  0106  1480     R  	inc _disk_initialize_2[11]
 118  0107  1780     R  	sdz _disk_initialize_2[9]
 118  0108  2800     R  	jmp _L88
 119  0109              #line 119 "E:\1_TOSHIBA\Projects\voltage_stabilizer\DataLoggerJig\proj\test_sd\sd_interface.c"
 119  0109  3800     R  	snz _disk_initialize_2[5].6
 119  010A  2800     R  	jmp _L89
 119  010B  0F0C        	mov a,12
 119  010C  0080     R  	mov _disk_initialize_2[9],a
 119  010D  2800     R  	jmp _L56
 119  010E              _L89:
 119  010E  0F04        	mov a,4
 119  010F  0080     R  	mov _disk_initialize_2[9],a
 119  0110  2800     R  	jmp _L56
 119  0111              _L95:
 142  0111              #line 142 "E:\1_TOSHIBA\Projects\voltage_stabilizer\DataLoggerJig\proj\test_sd\sd_interface.c"
 142  0111  0700     E  	mov a,ra
 142  0112  0003        	ret
 142  0113              _disk_initialize endp
 142  0113              #line 142 "E:\1_TOSHIBA\Projects\voltage_stabilizer\DataLoggerJig\proj\test_sd\sd_interface.c"
 142  0113              #pragma debug scope 1 1
 142  0113              public _disk_read
"File: sd_interface.c  Assembler  Version HGASM0202      Page 16

 142  0113              #pragma debug scope 15 1
 154  0113              #line 154 "E:\1_TOSHIBA\Projects\voltage_stabilizer\DataLoggerJig\proj\test_sd\sd_interface.c"
 154  0000              _disk_read .section 'code'
 154  0000              _disk_read proc
 154  0000              public _disk_read_2
 154  0000  000E[           local _disk_read_2 db 14 dup(?)	; 10,4
            00
            ]
 154  000E              #pragma debug pointer 46 8 15
 154  000E              #pragma debug pointer 46 8 15
 154  000E              #pragma debug variable 46 15 _disk_read_2+0 "buff"
 154  000E              #pragma debug variable 14 15 _disk_read_2+2 "sector"
 154  000E              #pragma debug variable 12 15 _disk_read_2+6 "offset"
 154  000E              #pragma debug variable 12 15 _disk_read_2+8 "count"
 154  000E              #pragma debug variable 7 15 _disk_read_2+10 "res"
 154  000E              #pragma debug variable 8 15 _disk_read_2+12 "rc"
 154  000E              #pragma debug variable 12 15 _disk_read_2+10 "bc"
 160  000E              #line 160 "E:\1_TOSHIBA\Projects\voltage_stabilizer\DataLoggerJig\proj\test_sd\sd_interface.c"
 160  0000  3C00     R  	sz _CardType[0].3
 160  0001  2800     R  	jmp _L107
 160  0002              #line 160 "E:\1_TOSHIBA\Projects\voltage_stabilizer\DataLoggerJig\proj\test_sd\sd_interface.c"
 160  0002  0F09        	mov a,9
 160  0003              _LI11:
 160  0003  340A        	clr c
 160  0004  1A80     R  	rlc _disk_read_2[2]
 160  0005  1A80     R  	rlc _disk_read_2[3]
 160  0006  1A80     R  	rlc _disk_read_2[4]
 160  0007  1A80     R  	rlc _disk_read_2[5]
 160  0008  1785        	sdz acc
 160  0009  2800     R  	jmp _LI11
 160  000A              _L107:
 163  000A              #line 163 "E:\1_TOSHIBA\Projects\voltage_stabilizer\DataLoggerJig\proj\test_sd\sd_interface.c"
 163  000A  0700     R  	mov a,_disk_read_2[2]
 163  000B  0080     R  	mov _send_cmd_2[0],a
 163  000C  0700     R  	mov a,_disk_read_2[3]
 163  000D  0080     R  	mov _send_cmd_2[1],a
 163  000E  0700     R  	mov a,_disk_read_2[4]
 163  000F  0080     R  	mov _send_cmd_2[2],a
 163  0010  0700     R  	mov a,_disk_read_2[5]
 163  0011  0080     R  	mov _send_cmd_2[3],a
 163  0012  0F51        	mov a,81
 163  0013  2000     R  	call _send_cmd
 163  0014  0080     E  	mov ra,a
 163  0015  1080     E  	sz ra
 163  0016  2800     R  	jmp _LI12
 163  0017  2800     R  	jmp _L108
 163  0018              _LI12:
 163  0018              _L111:
 162  0018              #line 162 "E:\1_TOSHIBA\Projects\voltage_stabilizer\DataLoggerJig\proj\test_sd\sd_interface.c"
 162  0018  0F01        	mov a,1
 162  0019  0080     R  	mov _disk_read_2[10],a
 162  001A  2800     R  	jmp _L109
 162  001B              _L108:
 163  001B              #line 163 "E:\1_TOSHIBA\Projects\voltage_stabilizer\DataLoggerJig\proj\test_sd\sd_interface.c"
 163  001B  0F40        	mov a,64
 163  001C  0080     R  	mov _disk_read_2[10],a
 163  001D  0F9C        	mov a,-100
 163  001E  0080     R  	mov _disk_read_2[11],a
 163  001F              _L112:
 167  001F              #line 167 "E:\1_TOSHIBA\Projects\voltage_stabilizer\DataLoggerJig\proj\test_sd\sd_interface.c"
"File: sd_interface.c  Assembler  Version HGASM0202      Page 17

 167  001F  0FFF        	mov a,255
 167  0020  2000     E  	call _SPI_transmit
 167  0021  0080     R  	mov _disk_read_2[12],a
 168  0022              #line 168 "E:\1_TOSHIBA\Projects\voltage_stabilizer\DataLoggerJig\proj\test_sd\sd_interface.c"
 168  0022  1600     R  	siza _disk_read_2[12]
 168  0023  2800     R  	jmp _L110
 168  0024  0FFF        	mov a,255
 168  0025  0380     R  	addm a,_disk_read_2[10]
 168  0026  0FFF        	mov a,255
 168  0027  1380     R  	adcm a,_disk_read_2[11]
 168  0028  0700     R  	mov a,_disk_read_2[10]
 168  0029  0500     R  	or a,_disk_read_2[11]
 168  002A  390A        	snz z
 168  002B  2800     R  	jmp _L112
 168  002C  2800     R  	jmp _L111
 168  002D              _L110:
 170  002D              #line 170 "E:\1_TOSHIBA\Projects\voltage_stabilizer\DataLoggerJig\proj\test_sd\sd_interface.c"
 170  002D  0700     R  	mov a,_disk_read_2[12]
 170  002E  0AFE        	sub a,254
 170  002F  390A        	snz z
 170  0030  2800     R  	jmp _L111
 172  0031              #line 172 "E:\1_TOSHIBA\Projects\voltage_stabilizer\DataLoggerJig\proj\test_sd\sd_interface.c"
 172  0031  0F02        	mov a,2
 172  0032  0200     R  	sub a,_disk_read_2[8]
 172  0033  0080     E  	mov ra,a
 172  0034  0F02        	mov a,2
 172  0035  1200     R  	sbc a,_disk_read_2[9]
 172  0036  0080     E  	mov rb,a
 172  0037  0700     E  	mov a,ra
 172  0038  0200     R  	sub a,_disk_read_2[6]
 172  0039  0080     E  	mov ra,a
 172  003A  0700     E  	mov a,rb
 172  003B  1200     R  	sbc a,_disk_read_2[7]
 172  003C  0080     E  	mov rb,a
 172  003D  0700     E  	mov a,ra
 172  003E  0080     R  	mov _disk_read_2[10],a
 172  003F  0700     E  	mov a,rb
 172  0040  0080     R  	mov _disk_read_2[11],a
 175  0041              #line 175 "E:\1_TOSHIBA\Projects\voltage_stabilizer\DataLoggerJig\proj\test_sd\sd_interface.c"
 175  0041  0700     R  	mov a,_disk_read_2[6]
 175  0042  0080     R  	mov _disk_read_2[12],a
 175  0043  0700     R  	mov a,_disk_read_2[7]
 175  0044  0080     R  	mov _disk_read_2[13],a
 175  0045              _L113:
 175  0045  0700     R  	mov a,_disk_read_2[12]
 175  0046  0500     R  	or a,_disk_read_2[13]
 175  0047  3D0A        	sz z
 175  0048  2800     R  	jmp _L127
 175  0049  0FFF        	mov a,255
 175  004A  2000     E  	call _SPI_transmit
 175  004B  0FFF        	mov a,255
 175  004C  0380     R  	addm a,_disk_read_2[12]
 175  004D  0FFF        	mov a,255
 175  004E  1380     R  	adcm a,_disk_read_2[13]
 175  004F  2800     R  	jmp _L113
 175  0050              _L127:
 178  0050              #line 178 "E:\1_TOSHIBA\Projects\voltage_stabilizer\DataLoggerJig\proj\test_sd\sd_interface.c"
 178  0050  0700     R  	mov a,_disk_read_2[0]
 178  0051  0500     R  	or a,_disk_read_2[1]
 178  0052  3D0A        	sz z
"File: sd_interface.c  Assembler  Version HGASM0202      Page 18

 178  0053  2800     R  	jmp _L120
 178  0054  0700     R  	mov a,_disk_read_2[0]
 178  0055  0080     R  	mov _disk_read_2[12],a
 178  0056  0700     R  	mov a,_disk_read_2[1]
 178  0057  0080     R  	mov _disk_read_2[13],a
 178  0058              _L118:
 180  0058              #line 180 "E:\1_TOSHIBA\Projects\voltage_stabilizer\DataLoggerJig\proj\test_sd\sd_interface.c"
 180  0058  0FFF        	mov a,255
 180  0059  2000     E  	call _SPI_transmit
 180  005A  0080     E  	mov ra,a
 180  005B  0700     R  	mov a,_disk_read_2[12]
 180  005C  0083        	mov mp,a
 180  005D  0700     R  	mov a,_disk_read_2[13]
 180  005E  0081        	mov sbp,a
 180  005F  0701        	mov a,sbp
 180  0060  0084        	mov bp,a
 180  0061  0700     E  	mov a,ra
 180  0062  0082        	mov ir,a
 181  0063              #line 181 "E:\1_TOSHIBA\Projects\voltage_stabilizer\DataLoggerJig\proj\test_sd\sd_interface.c"
 181  0063  0FFF        	mov a,255
 181  0064  0380     R  	addm a,_disk_read_2[8]
 181  0065  0FFF        	mov a,255
 181  0066  1380     R  	adcm a,_disk_read_2[9]
 181  0067  1480     R  	inc _disk_read_2[12]
 181  0068  3D0A        	sz z
 181  0069  1480     R  	inc _disk_read_2[13]
 181  006A  0700     R  	mov a,_disk_read_2[8]
 181  006B  0500     R  	or a,_disk_read_2[9]
 181  006C  390A        	snz z
 181  006D  2800     R  	jmp _L118
 181  006E  2800     R  	jmp _L117
 181  006F              _L128:
 184  006F              #line 184 "E:\1_TOSHIBA\Projects\voltage_stabilizer\DataLoggerJig\proj\test_sd\sd_interface.c"
 184  006F  0FFF        	mov a,255
 184  0070  2000     E  	call _SPI_transmit
 184  0071  0080     E  	mov ra,a
 184  0072  0700     E  	mov a,ra
 184  0073  00D9        	mov [89],a
 185  0074              #line 185 "E:\1_TOSHIBA\Projects\voltage_stabilizer\DataLoggerJig\proj\test_sd\sd_interface.c"
 185  0074  0FFF        	mov a,255
 185  0075  0380     R  	addm a,_disk_read_2[8]
 185  0076  0FFF        	mov a,255
 185  0077  1380     R  	adcm a,_disk_read_2[9]
 185  0078  0700     R  	mov a,_disk_read_2[8]
 185  0079  0500     R  	or a,_disk_read_2[9]
 185  007A  3D0A        	sz z
 185  007B  2800     R  	jmp _L117
 185  007C              _L120:
 184  007C              #line 184 "E:\1_TOSHIBA\Projects\voltage_stabilizer\DataLoggerJig\proj\test_sd\sd_interface.c"
 184  007C  3855        	snz [85].0
 184  007D  2800     R  	jmp _L120
 184  007E  2800     R  	jmp _L128
 184  007F              _L117:
 189  007F              #line 189 "E:\1_TOSHIBA\Projects\voltage_stabilizer\DataLoggerJig\proj\test_sd\sd_interface.c"
 189  007F  0FFF        	mov a,255
 189  0080  2000     E  	call _SPI_transmit
 189  0081  0FFF        	mov a,255
 189  0082  0380     R  	addm a,_disk_read_2[10]
 189  0083  0FFF        	mov a,255
 189  0084  1380     R  	adcm a,_disk_read_2[11]
"File: sd_interface.c  Assembler  Version HGASM0202      Page 19

 189  0085  0700     R  	mov a,_disk_read_2[10]
 189  0086  0500     R  	or a,_disk_read_2[11]
 189  0087  390A        	snz z
 189  0088  2800     R  	jmp _L117
 191  0089              #line 191 "E:\1_TOSHIBA\Projects\voltage_stabilizer\DataLoggerJig\proj\test_sd\sd_interface.c"
 191  0089  1F00     R  	clr _disk_read_2[10]
 191  008A              _L109:
 195  008A              #line 195 "E:\1_TOSHIBA\Projects\voltage_stabilizer\DataLoggerJig\proj\test_sd\sd_interface.c"
 195  008A  2000     E  	call _SPI_cs_disable
 196  008B              #line 196 "E:\1_TOSHIBA\Projects\voltage_stabilizer\DataLoggerJig\proj\test_sd\sd_interface.c"
 196  008B  0FFF        	mov a,255
 196  008C  2000     E  	call _SPI_transmit
 199  008D              #line 199 "E:\1_TOSHIBA\Projects\voltage_stabilizer\DataLoggerJig\proj\test_sd\sd_interface.c"
 199  008D  0700     R  	mov a,_disk_read_2[10]
 199  008E  0003        	ret
 199  008F              _disk_read endp
 199  008F              #line 199 "E:\1_TOSHIBA\Projects\voltage_stabilizer\DataLoggerJig\proj\test_sd\sd_interface.c"
 199  008F              #pragma debug scope 1 1
 199  008F              public _disk_write
 199  008F              #pragma debug scope 16 1
 209  008F              #line 209 "E:\1_TOSHIBA\Projects\voltage_stabilizer\DataLoggerJig\proj\test_sd\sd_interface.c"
 209  0000              _disk_write .section 'code'
 209  0000              _disk_write proc
 209  0000              public _disk_write_2
 209  0000  000C[           local _disk_write_2 db 12 dup(?)	; 6,6
            00
            ]
 209  000C              #pragma debug pointer 47 8 16
 209  000C              #pragma debug pointer 47 8 16
 209  000C              #pragma debug variable 47 16 _disk_write_2+0 "buff"
 209  000C              #pragma debug variable 14 16 _disk_write_2+2 "sc"
 209  000C              #pragma debug variable 7 16 _disk_write_2+6 "res"
 216  000C              #line 216 "E:\1_TOSHIBA\Projects\voltage_stabilizer\DataLoggerJig\proj\test_sd\sd_interface.c"
 216  0000  0700     R  	mov a,_disk_write_2[0]
 216  0001  0500     R  	or a,_disk_write_2[1]
 216  0002  3D0A        	sz z
 216  0003  2800     R  	jmp _L130
 217  0004              #line 217 "E:\1_TOSHIBA\Projects\voltage_stabilizer\DataLoggerJig\proj\test_sd\sd_interface.c"
 217  0004  0700     R  	mov a,_disk_write_2[2]
 217  0005  0080     R  	mov _disk_write_2[10],a
 217  0006  0700     R  	mov a,_disk_write_2[3]
 217  0007  0080     R  	mov _disk_write_2[11],a
 217  0008  0700     R  	mov a,_disk_write_2[0]
 217  0009  0080     R  	mov _disk_write_2[8],a
 217  000A  0700     R  	mov a,_disk_write_2[1]
 217  000B  0080     R  	mov _disk_write_2[9],a
 218  000C              #line 218 "E:\1_TOSHIBA\Projects\voltage_stabilizer\DataLoggerJig\proj\test_sd\sd_interface.c"
 218  000C  0700     R  	mov a,_disk_write_2[8]
 218  000D  0080     R  	mov _disk_write_2[6],a
 218  000E  0700     R  	mov a,_disk_write_2[9]
 218  000F  0080     R  	mov _disk_write_2[7],a
 218  0010              _L131:
 218  0010  0700     R  	mov a,_disk_write_2[10]
 218  0011  0300     R  	add a,_disk_write_2[8]
 218  0012  0080     E  	mov rb,a
 218  0013  0700     R  	mov a,_disk_write_2[11]
 218  0014  1300     R  	adc a,_disk_write_2[9]
 218  0015  0080     E  	mov rc,a
 218  0016  0700     E  	mov a,rb
 218  0017  0400     R  	xor a,_disk_write_2[6]
"File: sd_interface.c  Assembler  Version HGASM0202      Page 20

 218  0018  0700     E  	mov a,rc
 218  0019  3D0A        	sz z
 218  001A  0400     R  	xor a,_disk_write_2[7]
 218  001B  3D0A        	sz z
 218  001C  2800     R  	jmp _L145
 218  001D  0700     R  	mov a,___wc_2044[0]
 218  001E  0500     R  	or a,___wc_2044[1]
 218  001F  3D0A        	sz z
 218  0020  2800     R  	jmp _L145
 219  0021              #line 219 "E:\1_TOSHIBA\Projects\voltage_stabilizer\DataLoggerJig\proj\test_sd\sd_interface.c"
 219  0021  0700     R  	mov a,_disk_write_2[6]
 219  0022  0083        	mov mp,a
 219  0023  0700     R  	mov a,_disk_write_2[7]
 219  0024  0081        	mov sbp,a
 219  0025  2000     E  	call _Crom2Prom
 219  0026  2000     E  	call _SPI_transmit
 220  0027              #line 220 "E:\1_TOSHIBA\Projects\voltage_stabilizer\DataLoggerJig\proj\test_sd\sd_interface.c"
 220  0027  0FFF        	mov a,255
 220  0028  0380     R  	addm a,___wc_2044[0]
 220  0029  0FFF        	mov a,255
 220  002A  1380     R  	adcm a,___wc_2044[1]
 220  002B  1480     R  	inc _disk_write_2[6]
 220  002C  3D0A        	sz z
 220  002D  1480     R  	inc _disk_write_2[7]
 220  002E  2800     R  	jmp _L131
 220  002F              _L130:
 224  002F              #line 224 "E:\1_TOSHIBA\Projects\voltage_stabilizer\DataLoggerJig\proj\test_sd\sd_interface.c"
 224  002F  0700     R  	mov a,_disk_write_2[2]
 224  0030  0500     R  	or a,_disk_write_2[3]
 224  0031  0500     R  	or a,_disk_write_2[4]
 224  0032  0500     R  	or a,_disk_write_2[5]
 224  0033  3D0A        	sz z
 224  0034  2800     R  	jmp _L134
 225  0035              #line 225 "E:\1_TOSHIBA\Projects\voltage_stabilizer\DataLoggerJig\proj\test_sd\sd_interface.c"
 225  0035  3C00     R  	sz _CardType[0].3
 225  0036  2800     R  	jmp _L135
 225  0037  0F09        	mov a,9
 225  0038              _LI13:
 225  0038  340A        	clr c
 225  0039  1A80     R  	rlc _disk_write_2[2]
 225  003A  1A80     R  	rlc _disk_write_2[3]
 225  003B  1A80     R  	rlc _disk_write_2[4]
 225  003C  1A80     R  	rlc _disk_write_2[5]
 225  003D  1785        	sdz acc
 225  003E  2800     R  	jmp _LI13
 225  003F              _L135:
 226  003F              #line 226 "E:\1_TOSHIBA\Projects\voltage_stabilizer\DataLoggerJig\proj\test_sd\sd_interface.c"
 226  003F  0700     R  	mov a,_disk_write_2[2]
 226  0040  0080     R  	mov _send_cmd_2[0],a
 226  0041  0700     R  	mov a,_disk_write_2[3]
 226  0042  0080     R  	mov _send_cmd_2[1],a
 226  0043  0700     R  	mov a,_disk_write_2[4]
 226  0044  0080     R  	mov _send_cmd_2[2],a
 226  0045  0700     R  	mov a,_disk_write_2[5]
 226  0046  0080     R  	mov _send_cmd_2[3],a
 226  0047  0F58        	mov a,88
 226  0048  2000     R  	call _send_cmd
 226  0049  0080     E  	mov ra,a
 226  004A  1080     E  	sz ra
 226  004B  2800     R  	jmp _L146
"File: sd_interface.c  Assembler  Version HGASM0202      Page 21

 227  004C              #line 227 "E:\1_TOSHIBA\Projects\voltage_stabilizer\DataLoggerJig\proj\test_sd\sd_interface.c"
 227  004C  0FFF        	mov a,255
 227  004D  2000     E  	call _SPI_transmit
 227  004E  0FFE        	mov a,254
 227  004F  2000     E  	call _SPI_transmit
 228  0050              #line 228 "E:\1_TOSHIBA\Projects\voltage_stabilizer\DataLoggerJig\proj\test_sd\sd_interface.c"
 228  0050  1F00     R  	clr ___wc_2044[0]
 228  0051  0F02        	mov a,2
 228  0052  0080     R  	mov ___wc_2044[1],a
 228  0053  2800     R  	jmp _L145
 228  0054              _L134:
 233  0054              #line 233 "E:\1_TOSHIBA\Projects\voltage_stabilizer\DataLoggerJig\proj\test_sd\sd_interface.c"
 233  0054  0F02        	mov a,2
 233  0055  0300     R  	add a,___wc_2044[0]
 233  0056  0080     R  	mov _disk_write_2[6],a
 233  0057  0F00        	mov a,0
 233  0058  1300     R  	adc a,___wc_2044[1]
 233  0059  0080     R  	mov _disk_write_2[7],a
 233  005A              _L136:
 233  005A  0700     R  	mov a,_disk_write_2[6]
 233  005B  0500     R  	or a,_disk_write_2[7]
 233  005C  3D0A        	sz z
 233  005D  2800     R  	jmp _L150
 233  005E  0F00        	mov a,0
 233  005F  2000     E  	call _SPI_transmit
 233  0060  0FFF        	mov a,255
 233  0061  0380     R  	addm a,_disk_write_2[6]
 233  0062  0FFF        	mov a,255
 233  0063  1380     R  	adcm a,_disk_write_2[7]
 233  0064  2800     R  	jmp _L136
 233  0065              _L150:
 234  0065              #line 234 "E:\1_TOSHIBA\Projects\voltage_stabilizer\DataLoggerJig\proj\test_sd\sd_interface.c"
 234  0065  0FFF        	mov a,255
 234  0066  2000     E  	call _SPI_transmit
 234  0067  0080     E  	mov ra,a
 234  0068  0F1F        	mov a,31
 234  0069  0680     E  	andm a,ra
 234  006A  0700     E  	mov a,ra
 234  006B  0A05        	sub a,5
 234  006C  3D0A        	sz z
 234  006D  2800     R  	jmp _L138
 234  006E              _L143:
 214  006E              #line 214 "E:\1_TOSHIBA\Projects\voltage_stabilizer\DataLoggerJig\proj\test_sd\sd_interface.c"
 214  006E  0F01        	mov a,1
 214  006F  0080     R  	mov _disk_write_2[6],a
 214  0070  2800     R  	jmp _L139
 214  0071              _L138:
 234  0071              #line 234 "E:\1_TOSHIBA\Projects\voltage_stabilizer\DataLoggerJig\proj\test_sd\sd_interface.c"
 234  0071  0F88        	mov a,-120
 234  0072  0080     R  	mov _disk_write_2[8],a
 234  0073  0F13        	mov a,19
 234  0074  0080     R  	mov _disk_write_2[9],a
 234  0075              _L140:
 236  0075              #line 236 "E:\1_TOSHIBA\Projects\voltage_stabilizer\DataLoggerJig\proj\test_sd\sd_interface.c"
 236  0075  0FFF        	mov a,255
 236  0076  2000     E  	call _SPI_transmit
 236  0077  0080     E  	mov ra,a
 236  0078  1600     E  	siza ra
 236  0079  2800     R  	jmp _LI14
 236  007A  2800     R  	jmp _L141
"File: sd_interface.c  Assembler  Version HGASM0202      Page 22

 236  007B              _LI14:
 236  007B  0700     R  	mov a,_disk_write_2[8]
 236  007C  0500     R  	or a,_disk_write_2[9]
 236  007D  3D0A        	sz z
 236  007E  2800     R  	jmp _L143
 237  007F              #line 237 "E:\1_TOSHIBA\Projects\voltage_stabilizer\DataLoggerJig\proj\test_sd\sd_interface.c"
 237  007F  2000     R  	call _delay_100us
 236  0080              #line 236 "E:\1_TOSHIBA\Projects\voltage_stabilizer\DataLoggerJig\proj\test_sd\sd_interface.c"
 236  0080  0FFF        	mov a,255
 236  0081  0380     R  	addm a,_disk_write_2[8]
 236  0082  0FFF        	mov a,255
 236  0083  1380     R  	adcm a,_disk_write_2[9]
 236  0084  2800     R  	jmp _L140
 236  0085              _L141:
 238  0085              #line 238 "E:\1_TOSHIBA\Projects\voltage_stabilizer\DataLoggerJig\proj\test_sd\sd_interface.c"
 238  0085  0F01        	mov a,1
 238  0086  0080     R  	mov _disk_write_2[6],a
 238  0087  0700     R  	mov a,_disk_write_2[8]
 238  0088  0500     R  	or a,_disk_write_2[9]
 238  0089  3D0A        	sz z
 238  008A  2800     R  	jmp _L139
 238  008B  1F00     R  	clr _disk_write_2[6]
 238  008C              _L139:
 240  008C              #line 240 "E:\1_TOSHIBA\Projects\voltage_stabilizer\DataLoggerJig\proj\test_sd\sd_interface.c"
 240  008C  2000     E  	call _SPI_cs_disable
 241  008D              #line 241 "E:\1_TOSHIBA\Projects\voltage_stabilizer\DataLoggerJig\proj\test_sd\sd_interface.c"
 241  008D  0FFF        	mov a,255
 241  008E  2000     E  	call _SPI_transmit
 241  008F  2800     R  	jmp _L132
 241  0090              _L145:
 222  0090              #line 222 "E:\1_TOSHIBA\Projects\voltage_stabilizer\DataLoggerJig\proj\test_sd\sd_interface.c"
 222  0090  1F00     R  	clr _disk_write_2[6]
 222  0091  2800     R  	jmp _L132
 222  0092              _L146:
 214  0092              #line 214 "E:\1_TOSHIBA\Projects\voltage_stabilizer\DataLoggerJig\proj\test_sd\sd_interface.c"
 214  0092  0F01        	mov a,1
 214  0093  0080     R  	mov _disk_write_2[6],a
 214  0094              _L132:
 246  0094              #line 246 "E:\1_TOSHIBA\Projects\voltage_stabilizer\DataLoggerJig\proj\test_sd\sd_interface.c"
 246  0094  0700     R  	mov a,_disk_write_2[6]
 246  0095  0003        	ret
 246  0096              _disk_write endp
 246  0096              #line 246 "E:\1_TOSHIBA\Projects\voltage_stabilizer\DataLoggerJig\proj\test_sd\sd_interface.c"
 246  0096              #pragma debug scope 1 1
 246  0000              @HCCINIT0	.section	'data'
 246  0000  0002[       ___wc_2044	db 2 dup(0)
            00
            ]
 246  0002              #pragma debug variable 12 16 ___wc_2044 "wc"
 246  0002              
 246  0000              @HCCINIT .section 'data'
 246  0002              @HCCINIT0	.section	'data'
 246  0002              _CardType	db 0
 246  0003              #pragma debug variable 8 1 _CardType "CardType"
 246  0003              
 246  0000              @HCCINIT .section 'data'
 246  0000              extern _SPI_cs_disable:near
 246  0000              extern _SPI_transmit:near
 246  0000              extern _SPI_cs_enable:near
 246  0000              extern _itoa_2:byte
"File: sd_interface.c  Assembler  Version HGASM0202      Page 23

 246  0000              extern _itoa:near
 246  0000              extern _SPI_init:near
 246  0000              
 246  0000              ; 
 246  0000              ; Generated by holtek-gcc v3.14, Wed May 30 13:25:12 2018
 246  0000              ; Rebuild 10
 246  0000              ; end of file


        0 Errors, 0