"File: fat16.c       Assembler  Version HGASM0202      Page 1


   1  0000              ; Generated by holtek-gcc v3.14, Tue Jun 05 09:53:31 2018
   2  0000              ; 
   3  0000              ; Configuration:
   4  0000              ;       without long instruction
   5  0000              ;       Single ROM, Multi-RAM
   6  0000              ;       bits_per_rom_unit:16
   7  0000              ;       with mp1
   8  0000              ;       with tbhp, address(0x9)
   9  0000              ;          Use tabrd-const
  10  0000              ;       
  11  0000              ;       
  12  0000              ;       
  13  0000              ; use 'tabrdc' instead of 'tabrd'
  14  0000              ;       
  15  0000              
  16  0000              #pragma translator "holtek-gcc 4.6.4" "3.14" "build 20130711"
  17  0000              ; Rebuild 10
  18  0000              
  19  0000              ir equ [2]
  20  0000              mp equ [3]
  21  0000              sbp equ [1]
  22  0000              acc equ [5]
  23  0000              bp equ [4]
  24  0000              tblp equ [7]
  25  0000              tbhp equ [9]
  26  0000              status equ [10]
  27  0000              c equ [10].0
  28  0000              ac equ [10].1
  29  0000              z equ [10].2
  30  0000              ov equ [10].3
  31  0000              intc equ [11]
  32  0000              
  33  0000              extern ra:byte
  34  0000              extern rb:byte
  35  0000              extern rc:byte
  36  0000              extern rd:byte
  37  0000              extern re:byte
  38  0000              extern rf:byte
  39  0000              extern rg:byte
  40  0000              extern rh:byte
  41  0000              extern _Crom2Prom:near
  42  0000              extern _Crom2PromNext:near
  43  0000              
  44  0000              RAMBANK 0 @HCCINIT, @HCCINIT0
  45  0000              
  46  0000              RAMBANK 0 @BITDATASEC, @BITDATASEC1
  47  0000              @HCCINIT	.section 'data'
  48  0000              @HCCINIT0	.section 'data'
  49  0000              @BITDATASEC	 .section 'data'
  50  0000              @BITDATASEC1	 .section 'data'
  51  0000              
  52  0000              #pragma debug scope 1 1
  53  0000              	extern __DELAY3:near
  54  0000              	extern __DELAYX3:near
  55  0000              	extern __DELAYX6:near
  56  0000              	extern __DELAYY5:near
  57  0000              	extern __DELAYY3:near
  58  0000              	extern _builtin_holtek_delay_2:byte
  59  0000              public _FAT16_seek
"File: fat16.ASM     Assembler  Version HGASM0202      Page 2

  60  0000              #pragma debug scope 2 1

  32  0000              #line 32 "E:\1_TOSHIBA\Projects\voltage_stabilizer\DataLoggerJig\proj\test_sd_READ\fat16.c"
  32  0000              _FAT16_seek .section 'code'
  32  0000              _FAT16_seek proc
  32  0000              public _FAT16_seek_2
  32  0000  0004[           local _FAT16_seek_2 db 4 dup(?)	; 4,0
            00
            ]
  32  0004              #pragma debug variable 14 2 _FAT16_seek_2+0 "offset"
  34  0004              #line 34 "E:\1_TOSHIBA\Projects\voltage_stabilizer\DataLoggerJig\proj\test_sd_READ\fat16.c"
  34  0000  0700     R  	mov a,_FAT16_seek_2[0]
  34  0001  0080     E  	mov _SD_seek_2[0],a
  34  0002  0700     R  	mov a,_FAT16_seek_2[1]
  34  0003  0080     E  	mov _SD_seek_2[1],a
  34  0004  0700     R  	mov a,_FAT16_seek_2[2]
  34  0005  0080     E  	mov _SD_seek_2[2],a
  34  0006  0700     R  	mov a,_FAT16_seek_2[3]
  34  0007  0080     E  	mov _SD_seek_2[3],a
  34  0008  2000     E  	call _SD_seek
  34  0009  0003        	ret
  34  000A              _FAT16_seek endp
  34  000A              #line 34 "E:\1_TOSHIBA\Projects\voltage_stabilizer\DataLoggerJig\proj\test_sd_READ\fat16.c"
  34  000A              #pragma debug scope 1 1
  34  000A              public _FAT16_read
  34  000A              #pragma debug scope 3 1
  38  000A              #line 38 "E:\1_TOSHIBA\Projects\voltage_stabilizer\DataLoggerJig\proj\test_sd_READ\fat16.c"
  38  0000              _FAT16_read .section 'code'
  38  0000              _FAT16_read proc
  38  0000              public _FAT16_read_2
  38  0000  0003[           local _FAT16_read_2 db 3 dup(?)	; 3,0
            00
            ]
  38  0003              #pragma debug pointer 42 8 3
  38  0003              #pragma debug pointer 42 8 3
  38  0003              #pragma debug variable 42 3 _FAT16_read_2+0 "ptr"
  38  0003              #pragma debug variable 8 3 _FAT16_read_2+2 "bytes"
  40  0003              #line 40 "E:\1_TOSHIBA\Projects\voltage_stabilizer\DataLoggerJig\proj\test_sd_READ\fat16.c"
  40  0000  0700     R  	mov a,_FAT16_read_2[2]
  40  0001  0080     E  	mov _SD_get_2[2],a
  40  0002  0700     R  	mov a,_FAT16_read_2[0]
  40  0003  0080     E  	mov _SD_get_2[0],a
  40  0004  0700     R  	mov a,_FAT16_read_2[1]
  40  0005  0080     E  	mov _SD_get_2[1],a
  40  0006  2000     E  	call _SD_get
  40  0007  0080     E  	mov ra,a
  41  0008              #line 41 "E:\1_TOSHIBA\Projects\voltage_stabilizer\DataLoggerJig\proj\test_sd_READ\fat16.c"
  41  0008  0700     E  	mov a,ra
  41  0009  0003        	ret
  41  000A              _FAT16_read endp
  41  000A              #line 41 "E:\1_TOSHIBA\Projects\voltage_stabilizer\DataLoggerJig\proj\test_sd_READ\fat16.c"
  41  000A              #pragma debug scope 1 1
  41  000A              public _FAT16_write
  41  000A              #pragma debug scope 4 1
  44  000A              #line 44 "E:\1_TOSHIBA\Projects\voltage_stabilizer\DataLoggerJig\proj\test_sd_READ\fat16.c"
  44  0000              _FAT16_write .section 'code'
  44  0000              _FAT16_write proc
  44  0000  00              local _FAT16_write_2 db 1 dup(?)	; 0,1
  44  0001              #pragma debug variable 8 4 _FAT16_write_2+0 "bytes"
  46  0001              #line 46 "E:\1_TOSHIBA\Projects\voltage_stabilizer\DataLoggerJig\proj\test_sd_READ\fat16.c"
"File: fat16.c       Assembler  Version HGASM0202      Page 3

  46  0000  0700     E  	mov a,ra
  46  0001  0003        	ret
  46  0002              _FAT16_write endp
  46  0002              #line 46 "E:\1_TOSHIBA\Projects\voltage_stabilizer\DataLoggerJig\proj\test_sd_READ\fat16.c"
  46  0002              #pragma debug scope 1 1
  46  0000              @crom	.section 'crom'
  46  0000              _LC0:
  46  0000              	db 0ah,0dh,00h
  46  0002              public _FAT16_init
  46  0002              #pragma debug scope 5 1
  57  0002              #line 57 "E:\1_TOSHIBA\Projects\voltage_stabilizer\DataLoggerJig\proj\test_sd_READ\fat16.c"
  57  0000              _FAT16_init .section 'code'
  57  0000              _FAT16_init proc
  57  0000  0005[           local _FAT16_init_2 db 5 dup(?)	; 0,5
            00
            ]
  59  0005              #line 59 "E:\1_TOSHIBA\Projects\voltage_stabilizer\DataLoggerJig\proj\test_sd_READ\fat16.c"
  59  0000  1F00     R  	clr _file_data_addr[0]
  59  0001  1F00     R  	clr _file_data_addr[1]
  59  0002  1F00     R  	clr _file_data_addr[2]
  59  0003  1F00     R  	clr _file_data_addr[3]
  61  0004              #line 61 "E:\1_TOSHIBA\Projects\voltage_stabilizer\DataLoggerJig\proj\test_sd_READ\fat16.c"
  61  0004  0FBE        	mov a,-66
  61  0005  0080     R  	mov _FAT16_seek_2[0],a
  61  0006  0F01        	mov a,1
  61  0007  0080     R  	mov _FAT16_seek_2[1],a
  61  0008  1F00     R  	clr _FAT16_seek_2[2]
  61  0009  1F00     R  	clr _FAT16_seek_2[3]
  61  000A  2000     R  	call _FAT16_seek
  61  000B  0F04        	mov a,4
  61  000C  0080     R  	mov _FAT16_init_2[0],a
  61  000D              _L19:
  65  000D              #line 65 "E:\1_TOSHIBA\Projects\voltage_stabilizer\DataLoggerJig\proj\test_sd_READ\fat16.c"
  65  000D  0F10        	mov a,16
  65  000E  0080     R  	mov _FAT16_read_2[2],a
  65  000F  0F00     R  	mov a,low offset _fat16_buffer
  65  0010  0080     R  	mov _FAT16_read_2[0],a
  65  0011  0F00     R  	mov a,high offset _fat16_buffer
  65  0012  0080     R  	mov _FAT16_read_2[1],a
  65  0013  2000     R  	call _FAT16_read
  65  0014  0080     E  	mov ra,a
  67  0015              #line 67 "E:\1_TOSHIBA\Projects\voltage_stabilizer\DataLoggerJig\proj\test_sd_READ\fat16.c"
  67  0015  0F00     E  	mov a,low offset _c
  67  0016  0080     E  	mov _itoa_2[2],a
  67  0017  0F00     E  	mov a,high offset _c
  67  0018  0080     E  	mov _itoa_2[3],a
  67  0019  0700     E  	mov a,ra
  67  001A  0080     E  	mov _itoa_2[0],a
  67  001B  1F00     E  	clr _itoa_2[1]
  67  001C  3F85        	sz acc.7
  67  001D  1F80     E  	set _itoa_2[1]
  67  001E  2000     E  	call _itoa
  67  001F              #pragma debug scope 6 5
  67  001F              ;begin block, line: 67.-1
  68  001F              #line 68 "E:\1_TOSHIBA\Projects\voltage_stabilizer\DataLoggerJig\proj\test_sd_READ\fat16.c"
  68  001F  1F00     E  	clr ra
  68  0020              _L5:
  68  0020  0F00     E  	mov a,low offset _c
  68  0021  0300     E  	add a,ra
  68  0022  0083        	mov mp,a
"File: fat16.c       Assembler  Version HGASM0202      Page 4

  68  0023  0F00     E  	mov a,high offset _c
  68  0024  1F01        	clr sbp
  68  0025  1381        	adcm a,sbp
  68  0026  2000     E  	call _Crom2Prom
  68  0027  0080     E  	mov rb,a
  68  0028  1080     E  	sz rb
  68  0029  2800     R  	jmp _LI1
  68  002A  2800     R  	jmp _L10
  68  002B              _LI1:
  68  002B              _L7:
  68  002B  3855        	snz [85].0
  68  002C  2800     R  	jmp _L7
  68  002D  0700     E  	mov a,rb
  68  002E  00D9        	mov [89],a
  68  002F  1480     E  	inc ra
  68  0030  2800     R  	jmp _L5
  68  0031              _L10:
  68  0031  3855        	snz [85].0
  68  0032  2800     R  	jmp _L10
  68  0033  1F59        	clr [89]
  68  0034              #pragma debug scope 5 1
  68  0034              #pragma debug scope 7 5
  68  0034              ;begin block, line: 68.-1
  69  0034              #line 69 "E:\1_TOSHIBA\Projects\voltage_stabilizer\DataLoggerJig\proj\test_sd_READ\fat16.c"
  69  0034  1F00     E  	clr ra
  69  0035              _L11:
  69  0035  0F00     R  	mov a,low offset _LC0
  69  0036  0300     E  	add a,ra
  69  0037  0083        	mov mp,a
  69  0038  0F00     R  	mov a,high offset _LC0
  69  0039  1F01        	clr sbp
  69  003A  1381        	adcm a,sbp
  69  003B  2000     E  	call _Crom2Prom
  69  003C  0080     E  	mov rb,a
  69  003D  1080     E  	sz rb
  69  003E  2800     R  	jmp _LI2
  69  003F  2800     R  	jmp _L16
  69  0040              _LI2:
  69  0040              _L13:
  69  0040  3855        	snz [85].0
  69  0041  2800     R  	jmp _L13
  69  0042  0700     E  	mov a,rb
  69  0043  00D9        	mov [89],a
  69  0044  1480     E  	inc ra
  69  0045  2800     R  	jmp _L11
  69  0046              _L16:
  69  0046  3855        	snz [85].0
  69  0047  2800     R  	jmp _L16
  69  0048  1F59        	clr [89]
  69  0049              #pragma debug scope 5 1
  71  0049              #line 71 "E:\1_TOSHIBA\Projects\voltage_stabilizer\DataLoggerJig\proj\test_sd_READ\fat16.c"
  71  0049  0700     R  	mov a,_fat16_buffer[4]
  71  004A  0080     E  	mov ra,a
  71  004B  0700     E  	mov a,ra
  71  004C  0080     E  	mov rb,a
  71  004D  3400     E  	clr rb.1
  71  004E  0700     E  	mov a,rb
  71  004F  0A04        	sub a,4
  71  0050  3D0A        	sz z
  71  0051  2800     R  	jmp _L17
"File: fat16.c       Assembler  Version HGASM0202      Page 5

  71  0052  0700     E  	mov a,ra
  71  0053  0A0E        	sub a,14
  71  0054  3D0A        	sz z
  71  0055  2800     R  	jmp _L17
  71  0056  1780     R  	sdz _FAT16_init_2[0]
  71  0057  2800     R  	jmp _L19
  77  0058              #line 77 "E:\1_TOSHIBA\Projects\voltage_stabilizer\DataLoggerJig\proj\test_sd_READ\fat16.c"
  77  0058  1F80     E  	set ra
  77  0059  2800     R  	jmp _L29
  77  005A              _L17:
  79  005A              #line 79 "E:\1_TOSHIBA\Projects\voltage_stabilizer\DataLoggerJig\proj\test_sd_READ\fat16.c"
  79  005A  0700     R  	mov a,_fat16_buffer[8]
  79  005B  0080     E  	mov rd,a
  79  005C  0700     R  	mov a,_fat16_buffer[9]
  79  005D  0080     E  	mov re,a
  79  005E  0700     R  	mov a,_fat16_buffer[10]
  79  005F  0080     E  	mov rf,a
  79  0060  0700     R  	mov a,_fat16_buffer[11]
  79  0061  0080     E  	mov rg,a
  79  0062  0F09        	mov a,9
  79  0063              _LI3:
  79  0063  340A        	clr c
  79  0064  1A80     E  	rlc rd
  79  0065  1A80     E  	rlc re
  79  0066  1A80     E  	rlc rf
  79  0067  1A80     E  	rlc rg
  79  0068  1785        	sdz acc
  79  0069  2800     R  	jmp _LI3
  79  006A  0700     E  	mov a,rd
  79  006B  0080     R  	mov _fat16_state[1],a
  79  006C  0700     E  	mov a,re
  79  006D  0080     R  	mov _fat16_state[2],a
  79  006E  0700     E  	mov a,rf
  79  006F  0080     R  	mov _fat16_state[3],a
  79  0070  0700     E  	mov a,rg
  79  0071  0080     R  	mov _fat16_state[4],a
  81  0072              #line 81 "E:\1_TOSHIBA\Projects\voltage_stabilizer\DataLoggerJig\proj\test_sd_READ\fat16.c"
  81  0072  0F0B        	mov a,11
  81  0073  0300     E  	add a,rd
  81  0074  0080     R  	mov _FAT16_seek_2[0],a
  81  0075  0F00        	mov a,0
  81  0076  1300     E  	adc a,re
  81  0077  0080     R  	mov _FAT16_seek_2[1],a
  81  0078  0F00        	mov a,0
  81  0079  1300     E  	adc a,rf
  81  007A  0080     R  	mov _FAT16_seek_2[2],a
  81  007B  0F00        	mov a,0
  81  007C  1300     E  	adc a,rg
  81  007D  0080     R  	mov _FAT16_seek_2[3],a
  81  007E  2000     R  	call _FAT16_seek
  82  007F              #line 82 "E:\1_TOSHIBA\Projects\voltage_stabilizer\DataLoggerJig\proj\test_sd_READ\fat16.c"
  82  007F  0F19        	mov a,25
  82  0080  0080     R  	mov _FAT16_read_2[2],a
  82  0081  0F00     R  	mov a,low offset _fat16_buffer
  82  0082  0080     R  	mov _FAT16_read_2[0],a
  82  0083  0F00     R  	mov a,high offset _fat16_buffer
  82  0084  0080     R  	mov _FAT16_read_2[1],a
  82  0085  2000     R  	call _FAT16_read
  84  0086              #line 84 "E:\1_TOSHIBA\Projects\voltage_stabilizer\DataLoggerJig\proj\test_sd_READ\fat16.c"
  84  0086  0700     R  	mov a,_fat16_buffer[1]
"File: fat16.c       Assembler  Version HGASM0202      Page 6

  84  0087  0C02        	xor a,2
  84  0088  0500     R  	or a,_fat16_buffer[0]
  84  0089  390A        	snz z
  84  008A  2800     R  	jmp _L32
  88  008B              #line 88 "E:\1_TOSHIBA\Projects\voltage_stabilizer\DataLoggerJig\proj\test_sd_READ\fat16.c"
  88  008B  0700     R  	mov a,_fat16_buffer[5]
  88  008C  0080     E  	mov rh,a
  88  008D  0700     E  	mov a,rh
  88  008E  0080     R  	mov _fat16_state[0],a
  89  008F              #line 89 "E:\1_TOSHIBA\Projects\voltage_stabilizer\DataLoggerJig\proj\test_sd_READ\fat16.c"
  89  008F  340A        	clr c
  89  0090  1A00     R  	rlca _fat16_buffer[3]
  89  0091  0080     E  	mov rg,a
  89  0092  1F00     E  	clr rf
  89  0093  0700     R  	mov a,_fat16_state[1]
  89  0094  0080     E  	mov ra,a
  89  0095  0700     R  	mov a,_fat16_state[2]
  89  0096  0080     E  	mov rb,a
  89  0097  0700     R  	mov a,_fat16_state[3]
  89  0098  0080     E  	mov rc,a
  89  0099  0700     R  	mov a,_fat16_state[4]
  89  009A  0080     E  	mov rd,a
  89  009B  0700     E  	mov a,rf
  89  009C  0380     E  	addm a,ra
  89  009D  0700     E  	mov a,rg
  89  009E  1380     E  	adcm a,rb
  89  009F  1F05        	clr acc
  89  00A0  1380     E  	adcm a,rc
  89  00A1  1380     E  	adcm a,rd
  89  00A2  0700     E  	mov a,ra
  89  00A3  0080     R  	mov _FAT16_init_2[1],a
  89  00A4  0700     E  	mov a,rb
  89  00A5  0080     R  	mov _FAT16_init_2[2],a
  89  00A6  0700     E  	mov a,rc
  89  00A7  0080     R  	mov _FAT16_init_2[3],a
  89  00A8  0700     E  	mov a,rd
  89  00A9  0080     R  	mov _FAT16_init_2[4],a
  89  00AA  0700     E  	mov a,ra
  89  00AB  0080     R  	mov _fat16_state[1],a
  89  00AC  0700     E  	mov a,rb
  89  00AD  0080     R  	mov _fat16_state[2],a
  89  00AE  0700     E  	mov a,rc
  89  00AF  0080     R  	mov _fat16_state[3],a
  89  00B0  0700     E  	mov a,rd
  89  00B1  0080     R  	mov _fat16_state[4],a
  90  00B2              #line 90 "E:\1_TOSHIBA\Projects\voltage_stabilizer\DataLoggerJig\proj\test_sd_READ\fat16.c"
  90  00B2  340A        	clr c
  90  00B3  1A00     R  	rlca _fat16_buffer[11]
  90  00B4  0080     E  	mov rc,a
  90  00B5  1F00     E  	clr rb
  90  00B6  0700     R  	mov a,_FAT16_init_2[1]
  90  00B7  0080     E  	mov rd,a
  90  00B8  0700     R  	mov a,_FAT16_init_2[2]
  90  00B9  0080     E  	mov re,a
  90  00BA  0700     R  	mov a,_FAT16_init_2[3]
  90  00BB  0080     E  	mov rf,a
  90  00BC  0700     R  	mov a,_FAT16_init_2[4]
  90  00BD  0080     E  	mov rg,a
  90  00BE  0700     E  	mov a,rb
  90  00BF  0380     E  	addm a,rd
"File: fat16.c       Assembler  Version HGASM0202      Page 7

  90  00C0  0700     E  	mov a,rc
  90  00C1  1380     E  	adcm a,re
  90  00C2  1F05        	clr acc
  90  00C3  1380     E  	adcm a,rf
  90  00C4  1380     E  	adcm a,rg
  90  00C5  0700     E  	mov a,rd
  90  00C6  0080     R  	mov _fat16_state[5],a
  90  00C7  0700     E  	mov a,re
  90  00C8  0080     R  	mov _fat16_state[6],a
  90  00C9  0700     E  	mov a,rf
  90  00CA  0080     R  	mov _fat16_state[7],a
  90  00CB  0700     E  	mov a,rg
  90  00CC  0080     R  	mov _fat16_state[8],a
  92  00CD              #line 92 "E:\1_TOSHIBA\Projects\voltage_stabilizer\DataLoggerJig\proj\test_sd_READ\fat16.c"
  92  00CD  0700     E  	mov a,rh
  92  00CE  0080     E  	mov _builtin_holtek_mulhi3_2[0],a
  92  00CF  1F00     E  	clr _builtin_holtek_mulhi3_2[1]
  92  00D0  0700     E  	mov a,rb
  92  00D1  0080     E  	mov _builtin_holtek_mulhi3_2[2],a
  92  00D2  0700     E  	mov a,rc
  92  00D3  0080     E  	mov _builtin_holtek_mulhi3_2[3],a
  92  00D4  2000     E  	call _builtin_holtek_mulhi3
  92  00D5  0700     E  	mov a,_builtin_holtek_mulhi3_2[4]  
  92  00D6  0080     E  	mov rb,a  
  92  00D7  0700     E  	mov a,_builtin_holtek_mulhi3_2[5]  
  92  00D8  0080     E  	mov rc,a
  92  00D9  0700     R  	mov a,_FAT16_init_2[1]
  92  00DA  0080     E  	mov rd,a
  92  00DB  0700     R  	mov a,_FAT16_init_2[2]
  92  00DC  0080     E  	mov re,a
  92  00DD  0700     R  	mov a,_FAT16_init_2[3]
  92  00DE  0080     E  	mov rf,a
  92  00DF  0700     R  	mov a,_FAT16_init_2[4]
  92  00E0  0080     E  	mov rg,a
  92  00E1  0700     E  	mov a,rb
  92  00E2  0380     E  	addm a,rd
  92  00E3  0700     E  	mov a,rc
  92  00E4  1380     E  	adcm a,re
  92  00E5  1F05        	clr acc
  92  00E6  1380     E  	adcm a,rf
  92  00E7  1380     E  	adcm a,rg
  92  00E8  0700     E  	mov a,rd
  92  00E9  0080     R  	mov _FAT16_seek_2[0],a
  92  00EA  0700     E  	mov a,re
  92  00EB  0080     R  	mov _FAT16_seek_2[1],a
  92  00EC  0700     E  	mov a,rf
  92  00ED  0080     R  	mov _FAT16_seek_2[2],a
  92  00EE  0700     E  	mov a,rg
  92  00EF  0080     R  	mov _FAT16_seek_2[3],a
  92  00F0  0700     E  	mov a,rd
  92  00F1  0080     R  	mov _fat16_state[9],a
  92  00F2  0700     E  	mov a,re
  92  00F3  0080     R  	mov _fat16_state[10],a
  92  00F4  0700     E  	mov a,rf
  92  00F5  0080     R  	mov _fat16_state[11],a
  92  00F6  0700     E  	mov a,rg
  92  00F7  0080     R  	mov _fat16_state[12],a
  94  00F8              #line 94 "E:\1_TOSHIBA\Projects\voltage_stabilizer\DataLoggerJig\proj\test_sd_READ\fat16.c"
  94  00F8  0700     R  	mov a,_fat16_buffer[6]
  94  00F9  0080     E  	mov rb,a
"File: fat16.c       Assembler  Version HGASM0202      Page 8

  94  00FA  0700     R  	mov a,_fat16_buffer[7]
  94  00FB  0080     E  	mov rc,a
  94  00FC  0F05        	mov a,5
  94  00FD              _LI4:
  94  00FD  340A        	clr c
  94  00FE  1A80     E  	rlc rb
  94  00FF  1A80     E  	rlc rc
  94  0100  1785        	sdz acc
  94  0101  2800     R  	jmp _LI4
  94  0102  0700     E  	mov a,rb
  94  0103  0380     E  	addm a,rd
  94  0104  0700     E  	mov a,rc
  94  0105  1380     E  	adcm a,re
  94  0106  1F05        	clr acc
  94  0107  1380     E  	adcm a,rf
  94  0108  1380     E  	adcm a,rg
  94  0109  0700     E  	mov a,rd
  94  010A  0080     R  	mov _fat16_state[13],a
  94  010B  0700     E  	mov a,re
  94  010C  0080     R  	mov _fat16_state[14],a
  94  010D  0700     E  	mov a,rf
  94  010E  0080     R  	mov _fat16_state[15],a
  94  010F  0700     E  	mov a,rg
  94  0110  0080     R  	mov _fat16_state[16],a
  96  0111              #line 96 "E:\1_TOSHIBA\Projects\voltage_stabilizer\DataLoggerJig\proj\test_sd_READ\fat16.c"
  96  0111  0700     R  	mov a,_fat16_buffer[2]
  96  0112  0080     R  	mov _fat16_state[17],a
 104  0113              #line 104 "E:\1_TOSHIBA\Projects\voltage_stabilizer\DataLoggerJig\proj\test_sd_READ\fat16.c"
 104  0113  1F00     R  	clr _fat16_state[24]
 104  0114  1F00     R  	clr _fat16_state[25]
 104  0115  1F00     R  	clr _fat16_state[26]
 104  0116  1F00     R  	clr _fat16_state[27]
 105  0117              #line 105 "E:\1_TOSHIBA\Projects\voltage_stabilizer\DataLoggerJig\proj\test_sd_READ\fat16.c"
 105  0117  1F80     R  	set _fat16_state[20]
 105  0118  1F80     R  	set _fat16_state[21]
 105  0119  1F80     R  	set _fat16_state[22]
 105  011A  1F80     R  	set _fat16_state[23]
 107  011B              #line 107 "E:\1_TOSHIBA\Projects\voltage_stabilizer\DataLoggerJig\proj\test_sd_READ\fat16.c"
 107  011B  2000     R  	call _FAT16_seek
 109  011C              #line 109 "E:\1_TOSHIBA\Projects\voltage_stabilizer\DataLoggerJig\proj\test_sd_READ\fat16.c"
 109  011C  1F00     E  	clr ra
 109  011D  2800     R  	jmp _L29
 109  011E              _L32:
  85  011E              #line 85 "E:\1_TOSHIBA\Projects\voltage_stabilizer\DataLoggerJig\proj\test_sd_READ\fat16.c"
  85  011E  0FFE        	mov a,254
  85  011F  0080     E  	mov ra,a
  85  0120              _L29:
 110  0120              #line 110 "E:\1_TOSHIBA\Projects\voltage_stabilizer\DataLoggerJig\proj\test_sd_READ\fat16.c"
 110  0120  0700     E  	mov a,ra
 110  0121  0003        	ret
 110  0122              _FAT16_init endp
 110  0122              #line 110 "E:\1_TOSHIBA\Projects\voltage_stabilizer\DataLoggerJig\proj\test_sd_READ\fat16.c"
 110  0122              #pragma debug scope 1 1
 110  0122              public _FAT16_read_file
 110  0122              #pragma debug scope 8 1
 165  0122              #line 165 "E:\1_TOSHIBA\Projects\voltage_stabilizer\DataLoggerJig\proj\test_sd_READ\fat16.c"
 165  0000              _FAT16_read_file .section 'code'
 165  0000              _FAT16_read_file proc
 165  0000  0005[           local _FAT16_read_file_2 db 5 dup(?)	; 0,5
            00
"File: fat16.c       Assembler  Version HGASM0202      Page 9

            ]
 165  0000  0080     R  	mov _FAT16_read_file_2[0],a
 165  0001              #pragma debug variable 7 8 _FAT16_read_file_2+0 "bytes"
 169  0001              #line 169 "E:\1_TOSHIBA\Projects\voltage_stabilizer\DataLoggerJig\proj\test_sd_READ\fat16.c"
 169  0001  0700     R  	mov a,_fat16_state[24]
 169  0002  0500     R  	or a,_fat16_state[25]
 169  0003  0500     R  	or a,_fat16_state[26]
 169  0004  0500     R  	or a,_fat16_state[27]
 169  0005  3D0A        	sz z
 169  0006  2800     R  	jmp _L39
 172  0007              #line 172 "E:\1_TOSHIBA\Projects\voltage_stabilizer\DataLoggerJig\proj\test_sd_READ\fat16.c"
 172  0007  0700     R  	mov a,_fat16_state[20]
 172  0008  0500     R  	or a,_fat16_state[21]
 172  0009  0500     R  	or a,_fat16_state[22]
 172  000A  0500     R  	or a,_fat16_state[23]
 172  000B  390A        	snz z
 172  000C  2800     R  	jmp _L35
 175  000D              #line 175 "E:\1_TOSHIBA\Projects\voltage_stabilizer\DataLoggerJig\proj\test_sd_READ\fat16.c"
 175  000D  0700     R  	mov a,_fat16_state[18]
 175  000E  0080     E  	mov rd,a
 175  000F  0700     R  	mov a,_fat16_state[19]
 175  0010  0080     E  	mov re,a
 175  0011  1F00     E  	clr rf
 175  0012  1F00     E  	clr rg
 175  0013  0700     E  	mov a,rd
 175  0014  0380     E  	addm a,rd
 175  0015  0700     E  	mov a,re
 175  0016  1380     E  	adcm a,re
 175  0017  0700     E  	mov a,rf
 175  0018  1380     E  	adcm a,rf
 175  0019  0700     E  	mov a,rg
 175  001A  1380     E  	adcm a,rg
 175  001B  0700     R  	mov a,_fat16_state[1]
 175  001C  0300     E  	add a,rd
 175  001D  0080     R  	mov _FAT16_seek_2[0],a
 175  001E  0700     R  	mov a,_fat16_state[2]
 175  001F  1300     E  	adc a,re
 175  0020  0080     R  	mov _FAT16_seek_2[1],a
 175  0021  0700     R  	mov a,_fat16_state[3]
 175  0022  1300     E  	adc a,rf
 175  0023  0080     R  	mov _FAT16_seek_2[2],a
 175  0024  0700     R  	mov a,_fat16_state[4]
 175  0025  1300     E  	adc a,rg
 175  0026  0080     R  	mov _FAT16_seek_2[3],a
 175  0027  2000     R  	call _FAT16_seek
 176  0028              #line 176 "E:\1_TOSHIBA\Projects\voltage_stabilizer\DataLoggerJig\proj\test_sd_READ\fat16.c"
 176  0028  0F02        	mov a,2
 176  0029  0080     R  	mov _FAT16_read_2[2],a
 176  002A  0F00     R  	mov a,low offset _fat16_buffer
 176  002B  0080     R  	mov _FAT16_read_2[0],a
 176  002C  0F00     R  	mov a,high offset _fat16_buffer
 176  002D  0080     R  	mov _FAT16_read_2[1],a
 176  002E  2000     R  	call _FAT16_read
 178  002F              #line 178 "E:\1_TOSHIBA\Projects\voltage_stabilizer\DataLoggerJig\proj\test_sd_READ\fat16.c"
 178  002F  0700     R  	mov a,_fat16_buffer[0]
 178  0030  0080     E  	mov rb,a
 178  0031  0700     R  	mov a,_fat16_buffer[1]
 178  0032  0080     E  	mov rc,a
 178  0033  0700     E  	mov a,rb
 178  0034  0080     R  	mov _fat16_state[18],a
"File: fat16.c       Assembler  Version HGASM0202      Page 10

 178  0035  0700     E  	mov a,rc
 178  0036  0080     R  	mov _fat16_state[19],a
 179  0037              #line 179 "E:\1_TOSHIBA\Projects\voltage_stabilizer\DataLoggerJig\proj\test_sd_READ\fat16.c"
 179  0037  0700     R  	mov a,_fat16_state[17]
 179  0038  0080     E  	mov ra,a
 179  0039  0700     E  	mov a,ra
 179  003A  0300     E  	add a,ra
 179  003B  0080     E  	mov re,a
 179  003C  1F00     E  	clr rd
 179  003D  0700     E  	mov a,rd
 179  003E  0080     R  	mov _fat16_state[20],a
 179  003F  0700     E  	mov a,re
 179  0040  0080     R  	mov _fat16_state[21],a
 179  0041  1F05        	clr acc
 179  0042  3C00     R  	sz _fat16_state[21].7
 179  0043  1F85        	set acc
 179  0044  0080     R  	mov _fat16_state[22],a
 179  0045  0080     R  	mov _fat16_state[23],a
 181  0046              #line 181 "E:\1_TOSHIBA\Projects\voltage_stabilizer\DataLoggerJig\proj\test_sd_READ\fat16.c"
 181  0046  0700     E  	mov a,rb
 181  0047  0600     E  	and a,rc
 181  0048  0B01        	add a,1
 181  0049  380A        	snz c
 181  004A  2800     R  	jmp _L36
 184  004B              #line 184 "E:\1_TOSHIBA\Projects\voltage_stabilizer\DataLoggerJig\proj\test_sd_READ\fat16.c"
 184  004B  1F00     R  	clr _fat16_state[24]
 184  004C  1F00     R  	clr _fat16_state[25]
 184  004D  1F00     R  	clr _fat16_state[26]
 184  004E  1F00     R  	clr _fat16_state[27]
 184  004F  2800     R  	jmp _L39
 184  0050              _L36:
 190  0050              #line 190 "E:\1_TOSHIBA\Projects\voltage_stabilizer\DataLoggerJig\proj\test_sd_READ\fat16.c"
 190  0050  0F7E        	mov a,126
 190  0051  0380     E  	addm a,rb
 190  0052  0F00        	mov a,0
 190  0053  1380     E  	adcm a,rc
 190  0054  0700     E  	mov a,ra
 190  0055  0080     E  	mov _builtin_holtek_mulhi3_2[0],a
 190  0056  1F00     E  	clr _builtin_holtek_mulhi3_2[1]
 190  0057  0700     E  	mov a,rb
 190  0058  0080     E  	mov _builtin_holtek_mulhi3_2[2],a
 190  0059  0700     E  	mov a,rc
 190  005A  0080     E  	mov _builtin_holtek_mulhi3_2[3],a
 190  005B  2000     E  	call _builtin_holtek_mulhi3
 190  005C  0700     E  	mov a,_builtin_holtek_mulhi3_2[4]  
 190  005D  0080     E  	mov rb,a  
 190  005E  0700     E  	mov a,_builtin_holtek_mulhi3_2[5]  
 190  005F  0080     E  	mov rc,a
 190  0060  340A        	clr c
 190  0061  1A00     E  	rlca rb
 190  0062  0080     E  	mov rc,a
 190  0063  1F00     E  	clr rb
 189  0064              #line 189 "E:\1_TOSHIBA\Projects\voltage_stabilizer\DataLoggerJig\proj\test_sd_READ\fat16.c"
 189  0064  0700     R  	mov a,_fat16_state[13]
 189  0065  0080     E  	mov rd,a
 189  0066  0700     R  	mov a,_fat16_state[14]
 189  0067  0080     E  	mov re,a
 189  0068  0700     R  	mov a,_fat16_state[15]
 189  0069  0080     E  	mov rf,a
 189  006A  0700     R  	mov a,_fat16_state[16]
"File: fat16.c       Assembler  Version HGASM0202      Page 11

 189  006B  0080     E  	mov rg,a
 189  006C  0700     E  	mov a,rb
 189  006D  0380     E  	addm a,rd
 189  006E  0700     E  	mov a,rc
 189  006F  1380     E  	adcm a,re
 189  0070  1F05        	clr acc
 189  0071  1380     E  	adcm a,rf
 189  0072  1380     E  	adcm a,rg
 189  0073  0700     E  	mov a,rd
 189  0074  0080     R  	mov _FAT16_seek_2[0],a
 189  0075  0700     E  	mov a,re
 189  0076  0080     R  	mov _FAT16_seek_2[1],a
 189  0077  0700     E  	mov a,rf
 189  0078  0080     R  	mov _FAT16_seek_2[2],a
 189  0079  0700     E  	mov a,rg
 189  007A  0080     R  	mov _FAT16_seek_2[3],a
 189  007B  2000     R  	call _FAT16_seek
 189  007C              _L35:
 194  007C              #line 194 "E:\1_TOSHIBA\Projects\voltage_stabilizer\DataLoggerJig\proj\test_sd_READ\fat16.c"
 194  007C  0700     R  	mov a,_fat16_state[24]
 194  007D  0080     E  	mov rd,a
 194  007E  0700     R  	mov a,_fat16_state[25]
 194  007F  0080     E  	mov re,a
 194  0080  0700     R  	mov a,_fat16_state[26]
 194  0081  0080     E  	mov rf,a
 194  0082  0700     R  	mov a,_fat16_state[27]
 194  0083  0080     E  	mov rg,a
 194  0084  0700     R  	mov a,_FAT16_read_file_2[0]
 194  0085  0080     R  	mov _FAT16_read_file_2[1],a
 194  0086  0E80        	and a,80h
 194  0087  3F85        	sz acc.7
 194  0088  1F85        	set acc
 194  0089  0080     R  	mov _FAT16_read_file_2[2],a
 194  008A  0080     R  	mov _FAT16_read_file_2[3],a
 194  008B  0080     R  	mov _FAT16_read_file_2[4],a
 194  008C  0700     E  	mov a,rd
 194  008D  0200     R  	sub a,_FAT16_read_file_2[1]
 194  008E  0700     E  	mov a,re
 194  008F  1200     R  	sbc a,_FAT16_read_file_2[2]
 194  0090  0700     E  	mov a,rf
 194  0091  1200     R  	sbc a,_FAT16_read_file_2[3]
 194  0092  0700     E  	mov a,rg
 194  0093  1200     R  	sbc a,_FAT16_read_file_2[4]
 194  0094  3C0A        	sz c
 194  0095  2800     R  	jmp _L37
 195  0096              #line 195 "E:\1_TOSHIBA\Projects\voltage_stabilizer\DataLoggerJig\proj\test_sd_READ\fat16.c"
 195  0096  0700     E  	mov a,rd
 195  0097  0080     R  	mov _FAT16_read_file_2[0],a
 195  0098              _L37:
 196  0098              #line 196 "E:\1_TOSHIBA\Projects\voltage_stabilizer\DataLoggerJig\proj\test_sd_READ\fat16.c"
 196  0098  0700     R  	mov a,_fat16_state[20]
 196  0099  0080     E  	mov rd,a
 196  009A  0700     R  	mov a,_fat16_state[21]
 196  009B  0080     E  	mov re,a
 196  009C  0700     R  	mov a,_fat16_state[22]
 196  009D  0080     E  	mov rf,a
 196  009E  0700     R  	mov a,_fat16_state[23]
 196  009F  0080     E  	mov rg,a
 196  00A0  0700     R  	mov a,_FAT16_read_file_2[0]
 196  00A1  0080     R  	mov _FAT16_read_file_2[1],a
"File: fat16.c       Assembler  Version HGASM0202      Page 12

 196  00A2  0E80        	and a,80h
 196  00A3  3F85        	sz acc.7
 196  00A4  1F85        	set acc
 196  00A5  0080     R  	mov _FAT16_read_file_2[2],a
 196  00A6  0080     R  	mov _FAT16_read_file_2[3],a
 196  00A7  0080     R  	mov _FAT16_read_file_2[4],a
 196  00A8  0700     E  	mov a,rd
 196  00A9  0200     R  	sub a,_FAT16_read_file_2[1]
 196  00AA  0700     E  	mov a,re
 196  00AB  1200     R  	sbc a,_FAT16_read_file_2[2]
 196  00AC  0700     E  	mov a,rf
 196  00AD  1200     R  	sbc a,_FAT16_read_file_2[3]
 196  00AE  0700     E  	mov a,rg
 196  00AF  1200     R  	sbc a,_FAT16_read_file_2[4]
 196  00B0  3C0A        	sz c
 196  00B1  2800     R  	jmp _L38
 197  00B2              #line 197 "E:\1_TOSHIBA\Projects\voltage_stabilizer\DataLoggerJig\proj\test_sd_READ\fat16.c"
 197  00B2  0700     E  	mov a,rd
 197  00B3  0080     R  	mov _FAT16_read_file_2[0],a
 197  00B4              _L38:
 199  00B4              #line 199 "E:\1_TOSHIBA\Projects\voltage_stabilizer\DataLoggerJig\proj\test_sd_READ\fat16.c"
 199  00B4  0700     R  	mov a,_FAT16_read_file_2[0]
 199  00B5  0080     R  	mov _FAT16_read_2[2],a
 199  00B6  0F00     R  	mov a,low offset _fat16_buffer
 199  00B7  0080     R  	mov _FAT16_read_2[0],a
 199  00B8  0F00     R  	mov a,high offset _fat16_buffer
 199  00B9  0080     R  	mov _FAT16_read_2[1],a
 199  00BA  2000     R  	call _FAT16_read
 199  00BB  0080     E  	mov ra,a
 201  00BC              #line 201 "E:\1_TOSHIBA\Projects\voltage_stabilizer\DataLoggerJig\proj\test_sd_READ\fat16.c"
 201  00BC  0700     E  	mov a,ra
 201  00BD  0080     E  	mov rd,a
 201  00BE  0E80        	and a,80h
 201  00BF  3F85        	sz acc.7
 201  00C0  1F85        	set acc
 201  00C1  0080     E  	mov re,a
 201  00C2  0080     E  	mov rf,a
 201  00C3  0080     E  	mov rg,a
 201  00C4  0700     R  	mov a,_fat16_state[24]
 201  00C5  0200     E  	sub a,rd
 201  00C6  0080     R  	mov _fat16_state[24],a
 201  00C7  0700     R  	mov a,_fat16_state[25]
 201  00C8  1200     E  	sbc a,re
 201  00C9  0080     R  	mov _fat16_state[25],a
 201  00CA  0700     R  	mov a,_fat16_state[26]
 201  00CB  1200     E  	sbc a,rf
 201  00CC  0080     R  	mov _fat16_state[26],a
 201  00CD  0700     R  	mov a,_fat16_state[27]
 201  00CE  1200     E  	sbc a,rg
 201  00CF  0080     R  	mov _fat16_state[27],a
 202  00D0              #line 202 "E:\1_TOSHIBA\Projects\voltage_stabilizer\DataLoggerJig\proj\test_sd_READ\fat16.c"
 202  00D0  0700     R  	mov a,_fat16_state[20]
 202  00D1  0200     E  	sub a,rd
 202  00D2  0080     R  	mov _fat16_state[20],a
 202  00D3  0700     R  	mov a,_fat16_state[21]
 202  00D4  1200     E  	sbc a,re
 202  00D5  0080     R  	mov _fat16_state[21],a
 202  00D6  0700     R  	mov a,_fat16_state[22]
 202  00D7  1200     E  	sbc a,rf
 202  00D8  0080     R  	mov _fat16_state[22],a
"File: fat16.c       Assembler  Version HGASM0202      Page 13

 202  00D9  0700     R  	mov a,_fat16_state[23]
 202  00DA  1200     E  	sbc a,rg
 202  00DB  0080     R  	mov _fat16_state[23],a
 204  00DC              #line 204 "E:\1_TOSHIBA\Projects\voltage_stabilizer\DataLoggerJig\proj\test_sd_READ\fat16.c"
 204  00DC  2800     R  	jmp _L34
 204  00DD              _L39:
 170  00DD              #line 170 "E:\1_TOSHIBA\Projects\voltage_stabilizer\DataLoggerJig\proj\test_sd_READ\fat16.c"
 170  00DD  1F00     E  	clr ra
 170  00DE              _L34:
 205  00DE              #line 205 "E:\1_TOSHIBA\Projects\voltage_stabilizer\DataLoggerJig\proj\test_sd_READ\fat16.c"
 205  00DE  0700     E  	mov a,ra
 205  00DF  0003        	ret
 205  00E0              _FAT16_read_file endp
 205  00E0              #line 205 "E:\1_TOSHIBA\Projects\voltage_stabilizer\DataLoggerJig\proj\test_sd_READ\fat16.c"
 205  00E0              #pragma debug scope 1 1
 205  00E0              public _FAT16_open_file
 205  00E0              #pragma debug scope 9 1
 121  00E0              #line 121 "E:\1_TOSHIBA\Projects\voltage_stabilizer\DataLoggerJig\proj\test_sd_READ\fat16.c"
 121  0000              _FAT16_open_file .section 'code'
 121  0000              _FAT16_open_file proc
 121  0000              public _FAT16_open_file_2
 121  0000  0004[           local _FAT16_open_file_2 db 4 dup(?)	; 4,0
            00
            ]
 121  0004              #pragma debug pointer 43 7 9
 121  0004              #pragma debug pointer 43 7 9
 121  0004              #pragma debug variable 43 9 _FAT16_open_file_2+0 "filename"
 121  0004              #pragma debug variable 43 9 _FAT16_open_file_2+2 "ext"
 121  0000              _L48:
 125  0000              #line 125 "E:\1_TOSHIBA\Projects\voltage_stabilizer\DataLoggerJig\proj\test_sd_READ\fat16.c"
 125  0000  0F20        	mov a,32
 125  0001  2000     R  	call _FAT16_read_file
 125  0002  0080     E  	mov ra,a
 127  0003              #line 127 "E:\1_TOSHIBA\Projects\voltage_stabilizer\DataLoggerJig\proj\test_sd_READ\fat16.c"
 127  0003  0F1F        	mov a,31
 127  0004  0200     E  	sub a,ra
 127  0005  1185        	swap acc
 127  0006  040A        	xor a,status
 127  0007  3985        	snz acc.3
 127  0008  2800     R  	jmp _L52
 127  0009              #line 127 "E:\1_TOSHIBA\Projects\voltage_stabilizer\DataLoggerJig\proj\test_sd_READ\fat16.c"
 127  0009  0F08        	mov a,8
 127  000A  0080     E  	mov ra,a
 127  000B  1F00     E  	clr rf
 127  000C              _L44:
 131  000C              #line 131 "E:\1_TOSHIBA\Projects\voltage_stabilizer\DataLoggerJig\proj\test_sd_READ\fat16.c"
 131  000C  0700     E  	mov a,rf
 131  000D  0080     E  	mov rb,a
 131  000E  1F00     E  	clr rc
 131  000F  3F85        	sz acc.7
 131  0010  1F80     E  	set rc
 131  0011  0F00     R  	mov a,low offset _fat16_buffer
 131  0012  0300     E  	add a,rb
 131  0013  0083        	mov mp,a
 131  0014  0F00     R  	mov a,high offset _fat16_buffer
 131  0015  1300     E  	adc a,rc
 131  0016  0081        	mov sbp,a
 131  0017  2000     E  	call _Crom2Prom
 131  0018  0080     E  	mov rd,a
 131  0019  1F00     E  	clr re
"File: fat16.c       Assembler  Version HGASM0202      Page 14

 131  001A  0700     E  	mov a,rb
 131  001B  0300     R  	add a,_FAT16_open_file_2[0]
 131  001C  0083        	mov mp,a
 131  001D  0700     E  	mov a,rc
 131  001E  1300     R  	adc a,_FAT16_open_file_2[1]
 131  001F  0081        	mov sbp,a
 131  0020  2000     E  	call _Crom2Prom
 131  0021  0080     E  	mov rb,a
 131  0022  1F00     E  	clr rc
 131  0023  3C00     E  	sz rb.7
 131  0024  1F80     E  	set rc
 131  0025  0700     E  	mov a,rd
 131  0026  0400     E  	xor a,rb
 131  0027  0700     E  	mov a,re
 131  0028  3D0A        	sz z
 131  0029  0400     E  	xor a,rc
 131  002A  390A        	snz z
 131  002B  2800     R  	jmp _L42
 130  002C              #line 130 "E:\1_TOSHIBA\Projects\voltage_stabilizer\DataLoggerJig\proj\test_sd_READ\fat16.c"
 130  002C  1480     E  	inc rf
 130  002D  1780     E  	sdz ra
 130  002E  2800     R  	jmp _L44
 137  002F              #line 137 "E:\1_TOSHIBA\Projects\voltage_stabilizer\DataLoggerJig\proj\test_sd_READ\fat16.c"
 137  002F  0700     R  	mov a,_fat16_buffer[8]
 137  0030  0080     E  	mov rf,a
 137  0031  1F00     E  	clr rg
 137  0032  0700     R  	mov a,_FAT16_open_file_2[2]
 137  0033  0080     E  	mov rb,a
 137  0034  0700     R  	mov a,_FAT16_open_file_2[3]
 137  0035  0080     E  	mov rc,a
 137  0036  0700     E  	mov a,rb
 137  0037  0083        	mov mp,a
 137  0038  0700     E  	mov a,rc
 137  0039  0081        	mov sbp,a
 137  003A  2000     E  	call _Crom2Prom
 137  003B  0080     E  	mov rd,a
 137  003C  1F00     E  	clr re
 137  003D  3C00     E  	sz rd.7
 137  003E  1F80     E  	set re
 137  003F  0700     E  	mov a,rf
 137  0040  0400     E  	xor a,rd
 137  0041  0700     E  	mov a,rg
 137  0042  3D0A        	sz z
 137  0043  0400     E  	xor a,re
 137  0044  390A        	snz z
 137  0045  2800     R  	jmp _L42
 137  0046  0700     R  	mov a,_fat16_buffer[9]
 137  0047  0080     E  	mov rf,a
 137  0048  1F00     E  	clr rg
 137  0049  0F01        	mov a,1
 137  004A  0300     E  	add a,rb
 137  004B  0083        	mov mp,a
 137  004C  0F00        	mov a,0
 137  004D  1300     E  	adc a,rc
 137  004E  0081        	mov sbp,a
 137  004F  2000     E  	call _Crom2Prom
 137  0050  0080     E  	mov rd,a
 137  0051  1F00     E  	clr re
 137  0052  3C00     E  	sz rd.7
 137  0053  1F80     E  	set re
"File: fat16.c       Assembler  Version HGASM0202      Page 15

 137  0054  0700     E  	mov a,rf
 137  0055  0400     E  	xor a,rd
 137  0056  0700     E  	mov a,rg
 137  0057  3D0A        	sz z
 137  0058  0400     E  	xor a,re
 137  0059  3D0A        	sz z
 137  005A  2800     R  	jmp _L58
 137  005B              _L42:
 159  005B              #line 159 "E:\1_TOSHIBA\Projects\voltage_stabilizer\DataLoggerJig\proj\test_sd_READ\fat16.c"
 159  005B  0700     R  	mov a,_fat16_state[24]
 159  005C  0500     R  	or a,_fat16_state[25]
 159  005D  0500     R  	or a,_fat16_state[26]
 159  005E  0500     R  	or a,_fat16_state[27]
 159  005F  390A        	snz z
 159  0060  2800     R  	jmp _L48
 161  0061              #line 161 "E:\1_TOSHIBA\Projects\voltage_stabilizer\DataLoggerJig\proj\test_sd_READ\fat16.c"
 161  0061  1F80     E  	set ra
 161  0062  2800     R  	jmp _L55
 161  0063              _L52:
 128  0063              #line 128 "E:\1_TOSHIBA\Projects\voltage_stabilizer\DataLoggerJig\proj\test_sd_READ\fat16.c"
 128  0063  0FFE        	mov a,254
 128  0064  0080     E  	mov ra,a
 128  0065  2800     R  	jmp _L55
 128  0066              _L58:
 137  0066              #line 137 "E:\1_TOSHIBA\Projects\voltage_stabilizer\DataLoggerJig\proj\test_sd_READ\fat16.c"
 137  0066  0700     R  	mov a,_fat16_buffer[10]
 137  0067  0080     E  	mov rd,a
 137  0068  1F00     E  	clr re
 137  0069  0F02        	mov a,2
 137  006A  0300     E  	add a,rb
 137  006B  0083        	mov mp,a
 137  006C  0F00        	mov a,0
 137  006D  1300     E  	adc a,rc
 137  006E  0081        	mov sbp,a
 137  006F  2000     E  	call _Crom2Prom
 137  0070  0080     E  	mov rb,a
 137  0071  1F00     E  	clr rc
 137  0072  3C00     E  	sz rb.7
 137  0073  1F80     E  	set rc
 137  0074  0700     E  	mov a,rd
 137  0075  0400     E  	xor a,rb
 137  0076  0700     E  	mov a,re
 137  0077  3D0A        	sz z
 137  0078  0400     E  	xor a,rc
 137  0079  390A        	snz z
 137  007A  2800     R  	jmp _L42
 143  007B              #line 143 "E:\1_TOSHIBA\Projects\voltage_stabilizer\DataLoggerJig\proj\test_sd_READ\fat16.c"
 143  007B  0700     R  	mov a,_fat16_buffer[26]
 143  007C  0080     E  	mov rd,a
 143  007D  0700     R  	mov a,_fat16_buffer[27]
 143  007E  0080     E  	mov re,a
 143  007F  0700     E  	mov a,rd
 143  0080  0080     R  	mov _fat16_state[18],a
 143  0081  0700     E  	mov a,re
 143  0082  0080     R  	mov _fat16_state[19],a
 144  0083              #line 144 "E:\1_TOSHIBA\Projects\voltage_stabilizer\DataLoggerJig\proj\test_sd_READ\fat16.c"
 144  0083  0700     R  	mov a,_fat16_state[17]
 144  0084  0080     E  	mov ra,a
 144  0085  0700     E  	mov a,ra
 144  0086  0300     E  	add a,ra
"File: fat16.c       Assembler  Version HGASM0202      Page 16

 144  0087  0080     E  	mov rc,a
 144  0088  1F00     E  	clr rb
 144  0089  0700     E  	mov a,rb
 144  008A  0080     R  	mov _fat16_state[20],a
 144  008B  0700     E  	mov a,rc
 144  008C  0080     R  	mov _fat16_state[21],a
 144  008D  1F05        	clr acc
 144  008E  3C00     R  	sz _fat16_state[21].7
 144  008F  1F85        	set acc
 144  0090  0080     R  	mov _fat16_state[22],a
 144  0091  0080     R  	mov _fat16_state[23],a
 146  0092              #line 146 "E:\1_TOSHIBA\Projects\voltage_stabilizer\DataLoggerJig\proj\test_sd_READ\fat16.c"
 146  0092  0700     R  	mov a,_fat16_buffer[0]
 146  0093  0A2E        	sub a,46
 146  0094  3D0A        	sz z
 146  0095  2800     R  	jmp _L50
 146  0096  3800     R  	snz _fat16_buffer[11].4
 146  0097  2800     R  	jmp _L46
 146  0098              _L50:
 150  0098              #line 150 "E:\1_TOSHIBA\Projects\voltage_stabilizer\DataLoggerJig\proj\test_sd_READ\fat16.c"
 150  0098  1F80     R  	set _fat16_state[24]
 150  0099  1F80     R  	set _fat16_state[25]
 150  009A  1F80     R  	set _fat16_state[26]
 150  009B  1F80     R  	set _fat16_state[27]
 150  009C  2800     R  	jmp _L47
 150  009D              _L46:
 152  009D              #line 152 "E:\1_TOSHIBA\Projects\voltage_stabilizer\DataLoggerJig\proj\test_sd_READ\fat16.c"
 152  009D  0700     R  	mov a,_fat16_buffer[28]
 152  009E  0080     R  	mov _fat16_state[24],a
 152  009F  0700     R  	mov a,_fat16_buffer[29]
 152  00A0  0080     R  	mov _fat16_state[25],a
 152  00A1  0700     R  	mov a,_fat16_buffer[30]
 152  00A2  0080     R  	mov _fat16_state[26],a
 152  00A3  0700     R  	mov a,_fat16_buffer[31]
 152  00A4  0080     R  	mov _fat16_state[27],a
 152  00A5              _L47:
 157  00A5              #line 157 "E:\1_TOSHIBA\Projects\voltage_stabilizer\DataLoggerJig\proj\test_sd_READ\fat16.c"
 157  00A5  0F7E        	mov a,126
 157  00A6  0380     E  	addm a,rd
 157  00A7  0F00        	mov a,0
 157  00A8  1380     E  	adcm a,re
 157  00A9  0700     E  	mov a,ra
 157  00AA  0080     E  	mov _builtin_holtek_mulhi3_2[0],a
 157  00AB  1F00     E  	clr _builtin_holtek_mulhi3_2[1]
 157  00AC  0700     E  	mov a,rd
 157  00AD  0080     E  	mov _builtin_holtek_mulhi3_2[2],a
 157  00AE  0700     E  	mov a,re
 157  00AF  0080     E  	mov _builtin_holtek_mulhi3_2[3],a
 157  00B0  2000     E  	call _builtin_holtek_mulhi3
 157  00B1  0700     E  	mov a,_builtin_holtek_mulhi3_2[4]  
 157  00B2  0080     E  	mov rd,a  
 157  00B3  0700     E  	mov a,_builtin_holtek_mulhi3_2[5]  
 157  00B4  0080     E  	mov re,a
 157  00B5  340A        	clr c
 157  00B6  1A00     E  	rlca rd
 157  00B7  0080     E  	mov rg,a
 157  00B8  1F00     E  	clr rf
 156  00B9              #line 156 "E:\1_TOSHIBA\Projects\voltage_stabilizer\DataLoggerJig\proj\test_sd_READ\fat16.c"
 156  00B9  0700     R  	mov a,_fat16_state[13]
 156  00BA  0080     E  	mov ra,a
"File: fat16.c       Assembler  Version HGASM0202      Page 17

 156  00BB  0700     R  	mov a,_fat16_state[14]
 156  00BC  0080     E  	mov rb,a
 156  00BD  0700     R  	mov a,_fat16_state[15]
 156  00BE  0080     E  	mov rc,a
 156  00BF  0700     R  	mov a,_fat16_state[16]
 156  00C0  0080     E  	mov rd,a
 156  00C1  0700     E  	mov a,rf
 156  00C2  0380     E  	addm a,ra
 156  00C3  0700     E  	mov a,rg
 156  00C4  1380     E  	adcm a,rb
 156  00C5  1F05        	clr acc
 156  00C6  1380     E  	adcm a,rc
 156  00C7  1380     E  	adcm a,rd
 156  00C8  0700     E  	mov a,ra
 156  00C9  0080     R  	mov _FAT16_seek_2[0],a
 156  00CA  0700     E  	mov a,rb
 156  00CB  0080     R  	mov _FAT16_seek_2[1],a
 156  00CC  0700     E  	mov a,rc
 156  00CD  0080     R  	mov _FAT16_seek_2[2],a
 156  00CE  0700     E  	mov a,rd
 156  00CF  0080     R  	mov _FAT16_seek_2[3],a
 156  00D0  2000     R  	call _FAT16_seek
 158  00D1              #line 158 "E:\1_TOSHIBA\Projects\voltage_stabilizer\DataLoggerJig\proj\test_sd_READ\fat16.c"
 158  00D1  1F00     E  	clr ra
 158  00D2              _L55:
 162  00D2              #line 162 "E:\1_TOSHIBA\Projects\voltage_stabilizer\DataLoggerJig\proj\test_sd_READ\fat16.c"
 162  00D2  0700     E  	mov a,ra
 162  00D3  0003        	ret
 162  00D4              _FAT16_open_file endp
 162  00D4              #line 162 "E:\1_TOSHIBA\Projects\voltage_stabilizer\DataLoggerJig\proj\test_sd_READ\fat16.c"
 162  00D4              #pragma debug scope 1 1
 162  0000              @HCCINIT0	.section	'data'
 162  0000  0004[       _file_data_addr	db 4 dup(0)
            00
            ]
 162  0004              #pragma debug variable 14 1 _file_data_addr "file_data_addr"
 162  0004              
 162  0000              @HCCINIT .section 'data'
  25  0000              #line 25 "E:\1_TOSHIBA\Projects\voltage_stabilizer\DataLoggerJig\proj\test_sd_READ\fat16.c"
  25  0000              public _fat16_state
  25  0004              @HCCINIT0 .section 'data'
  25  0004  001C[       _fat16_state	db 28 dup(0)
            00
            ]
  25  0020              #pragma debug struct_end
  25  0020              #pragma debug struct_end
  25  0020              #pragma debug variable 44 1 _fat16_state "fat16_state"
  25  0020              
  25  0000              @HCCINIT .section 'data'
  24  0000              #line 24 "E:\1_TOSHIBA\Projects\voltage_stabilizer\DataLoggerJig\proj\test_sd_READ\fat16.c"
  24  0000              public _fat16_buffer
  24  0020              @HCCINIT0 .section 'data'
  24  0020  0020[       _fat16_buffer	db 32 dup(0)
            00
            ]
  24  0040              #pragma debug array 45 8 32 1
  24  0040              #pragma debug array 45 8 32 1
  24  0040              #pragma debug variable 45 1 _fat16_buffer "fat16_buffer"
  24  0040              
  24  0000              @HCCINIT .section 'data'
"File: fat16.c       Assembler  Version HGASM0202      Page 18

  24  0000              
  24  0000              ; output external variables
  24  0000              extern _c:byte
  24  0000              extern _SD_seek_2:byte
  24  0000              extern _SD_seek:near
  24  0000              extern _SD_get_2:byte
  24  0000              extern _SD_get:near
  24  0000              extern _itoa_2:byte
  24  0000              extern _itoa:near
  24  0000              extern _builtin_holtek_mulhi3_2:byte
  24  0000              extern _builtin_holtek_mulhi3:near
  24  0000              
  24  0000              ; 
  24  0000              ; Generated by holtek-gcc v3.14, Tue Jun 05 09:53:31 2018
  24  0000              ; Rebuild 10
  24  0000              ; end of file


        0 Errors, 0