"File: util.c        Assembler  Version HGASM0202      Page 1


   1  0000              ; Generated by holtek-gcc v3.14, Tue Jun 05 09:53:29 2018
   2  0000              ; 
   3  0000              ; Configuration:
   4  0000              ;       without long instruction
   5  0000              ;       Single ROM, Multi-RAM
   6  0000              ;       bits_per_rom_unit:16
   7  0000              ;       with mp1
   8  0000              ;       with tbhp, address(0x9)
   9  0000              ;          Use tabrd-const
  10  0000              ;       
  11  0000              ;       
  12  0000              ;       
  13  0000              ; use 'tabrdc' instead of 'tabrd'
  14  0000              ;       
  15  0000              
  16  0000              #pragma translator "holtek-gcc 4.6.4" "3.14" "build 20130711"
  17  0000              ; Rebuild 10
  18  0000              
  19  0000              ir equ [2]
  20  0000              mp equ [3]
  21  0000              sbp equ [1]
  22  0000              acc equ [5]
  23  0000              bp equ [4]
  24  0000              tblp equ [7]
  25  0000              tbhp equ [9]
  26  0000              status equ [10]
  27  0000              c equ [10].0
  28  0000              ac equ [10].1
  29  0000              z equ [10].2
  30  0000              ov equ [10].3
  31  0000              intc equ [11]
  32  0000              
  33  0000              extern ra:byte
  34  0000              extern rb:byte
  35  0000              extern rc:byte
  36  0000              extern rd:byte
  37  0000              extern re:byte
  38  0000              extern rf:byte
  39  0000              extern rg:byte
  40  0000              extern rh:byte
  41  0000              extern _Crom2Prom:near
  42  0000              extern _Crom2PromNext:near
  43  0000              
  44  0000              RAMBANK 0 @HCCINIT, @HCCINIT0
  45  0000              
  46  0000              RAMBANK 0 @BITDATASEC, @BITDATASEC1
  47  0000              @HCCINIT	.section 'data'
  48  0000              @HCCINIT0	.section 'data'
  49  0000              @BITDATASEC	 .section 'data'
  50  0000              @BITDATASEC1	 .section 'data'
  51  0000              
  52  0000              #pragma debug scope 1 1
  53  0000              	extern __DELAY3:near
  54  0000              	extern __DELAYX3:near
  55  0000              	extern __DELAYX6:near
  56  0000              	extern __DELAYY5:near
  57  0000              	extern __DELAYY3:near
  58  0000              	extern _builtin_holtek_delay_2:byte
  59  0000              public _delay_100us
"File: util.ASM      Assembler  Version HGASM0202      Page 2

  60  0000              #pragma debug scope 2 1

  14  0000              #line 14 "E:\1_TOSHIBA\Projects\voltage_stabilizer\DataLoggerJig\proj\test_sd_READ\util.c"
  14  0000              _delay_100us .section 'code'
  14  0000              _delay_100us proc
  15  0000              #line 15 "E:\1_TOSHIBA\Projects\voltage_stabilizer\DataLoggerJig\proj\test_sd_READ\util.c"
  15  0000              ;# 15 "E:\1_TOSHIBA\Projects\voltage_stabilizer\DataLoggerJig\proj\test_sd_READ\util.c" 1
  15  0000              	IF 200>263690
  15  0000              ;# 15 "E:\1_TOSHIBA\Projects\voltage_stabilizer\DataLoggerJig\proj\test_sd_READ\util.c" 1
  15  0000              	ERRMESSAGE 'the value 200of the argument exceeds the maxinum 263690'
  15  0000              	ENDIF
  15  0000              ;# 15 "E:\1_TOSHIBA\Projects\voltage_stabilizer\DataLoggerJig\proj\test_sd_READ\util.c" 1
  15  0000              	IF 200<0
  15  0000              ;# 15 "E:\1_TOSHIBA\Projects\voltage_stabilizer\DataLoggerJig\proj\test_sd_READ\util.c" 1
  15  0000              	ERRMESSAGE 'the value 200 of the argument exceeds the mininum 0'
  15  0000              	ENDIF
  15  0000              ;# 15 "E:\1_TOSHIBA\Projects\voltage_stabilizer\DataLoggerJig\proj\test_sd_READ\util.c" 1
  15  0000              	IF 200==0
  15  0000              ;# 15 "E:\1_TOSHIBA\Projects\voltage_stabilizer\DataLoggerJig\proj\test_sd_READ\util.c" 1
  15  0000              	JMP $
  15  0000              	ENDIF
  15  0000              ;# 15 "E:\1_TOSHIBA\Projects\voltage_stabilizer\DataLoggerJig\proj\test_sd_READ\util.c" 1
  15  0000              	IF 200==1
  15  0000              ;# 15 "E:\1_TOSHIBA\Projects\voltage_stabilizer\DataLoggerJig\proj\test_sd_READ\util.c" 1
  15  0000              	NOP
  15  0000              	ENDIF
  15  0000              ;# 15 "E:\1_TOSHIBA\Projects\voltage_stabilizer\DataLoggerJig\proj\test_sd_READ\util.c" 1
  15  0000              	IF 200==2
  15  0000              ;# 15 "E:\1_TOSHIBA\Projects\voltage_stabilizer\DataLoggerJig\proj\test_sd_READ\util.c" 1
  15  0000              	NOP
  15  0000              ;# 15 "E:\1_TOSHIBA\Projects\voltage_stabilizer\DataLoggerJig\proj\test_sd_READ\util.c" 1
  15  0000              	NOP
  15  0000              	ENDIF
  15  0000              ;# 15 "E:\1_TOSHIBA\Projects\voltage_stabilizer\DataLoggerJig\proj\test_sd_READ\util.c" 1
  15  0000              	IF 200==3
  15  0000              ;# 15 "E:\1_TOSHIBA\Projects\voltage_stabilizer\DataLoggerJig\proj\test_sd_READ\util.c" 1
  15  0000              	NOP
  15  0000              ;# 15 "E:\1_TOSHIBA\Projects\voltage_stabilizer\DataLoggerJig\proj\test_sd_READ\util.c" 1
  15  0000              	NOP
  15  0000              ;# 15 "E:\1_TOSHIBA\Projects\voltage_stabilizer\DataLoggerJig\proj\test_sd_READ\util.c" 1
  15  0000              	NOP
  15  0000              	ENDIF
  15  0000              ;# 15 "E:\1_TOSHIBA\Projects\voltage_stabilizer\DataLoggerJig\proj\test_sd_READ\util.c" 1
  15  0000              	IF (200<8) AND (200>3)
  15  0000              ;# 15 "E:\1_TOSHIBA\Projects\voltage_stabilizer\DataLoggerJig\proj\test_sd_READ\util.c" 1
  15  0000              	CALL __DELAY3 + 7 -200
  15  0000              	ENDIF
  15  0000              ;# 15 "E:\1_TOSHIBA\Projects\voltage_stabilizer\DataLoggerJig\proj\test_sd_READ\util.c" 1
  15  0000              	IF (200< 0404h) AND (200>7)
  15  0000              ;# 15 "E:\1_TOSHIBA\Projects\voltage_stabilizer\DataLoggerJig\proj\test_sd_READ\util.c" 1
  15  0000  0F31        	MOV A,200/4-1
  15  0001              ;# 15 "E:\1_TOSHIBA\Projects\voltage_stabilizer\DataLoggerJig\proj\test_sd_READ\util.c" 1
  15  0001  2000     E  	CALL __DELAYX3 + 3 -(200 MOD 4)
  15  0002              	ENDIF
  15  0002              ;# 15 "E:\1_TOSHIBA\Projects\voltage_stabilizer\DataLoggerJig\proj\test_sd_READ\util.c" 1
  15  0002              	IF (200< 0x40B) AND (200> 0403h)
  15  0002              ;# 15 "E:\1_TOSHIBA\Projects\voltage_stabilizer\DataLoggerJig\proj\test_sd_READ\util.c" 1
  15  0002              	MOV A,0 
  15  0002              ;# 15 "E:\1_TOSHIBA\Projects\voltage_stabilizer\DataLoggerJig\proj\test_sd_READ\util.c" 1
  15  0002              	CALL __DELAYX6 + 0x40a -200
"File: util.c        Assembler  Version HGASM0202      Page 3

  15  0002              	ENDIF
  15  0002              ;# 15 "E:\1_TOSHIBA\Projects\voltage_stabilizer\DataLoggerJig\proj\test_sd_READ\util.c" 1
  15  0002              	IF (200 >= 0x40b) AND ((((200-9)%0402h)/4+1)>256)
  15  0002              ;# 15 "E:\1_TOSHIBA\Projects\voltage_stabilizer\DataLoggerJig\proj\test_sd_READ\util.c" 1
  15  0002              	MOV A,(200-9)/0402h
  15  0002              ;# 15 "E:\1_TOSHIBA\Projects\voltage_stabilizer\DataLoggerJig\proj\test_sd_READ\util.c" 1
  15  0002              	MOV _builtin_holtek_delay_2,A
  15  0002              ;# 15 "E:\1_TOSHIBA\Projects\voltage_stabilizer\DataLoggerJig\proj\test_sd_READ\util.c" 1
  15  0002              	MOV A,0
  15  0002              ;# 15 "E:\1_TOSHIBA\Projects\voltage_stabilizer\DataLoggerJig\proj\test_sd_READ\util.c" 1
  15  0002              	CALL __DELAYY5 +5- (((200-9)%0402h)%6)
  15  0002              	ENDIF
  15  0002              ;# 15 "E:\1_TOSHIBA\Projects\voltage_stabilizer\DataLoggerJig\proj\test_sd_READ\util.c" 1
  15  0002              	IF (200 >= 0x40b) AND ((((200-9)%0402h)/4+1)<=256)
  15  0002              ;# 15 "E:\1_TOSHIBA\Projects\voltage_stabilizer\DataLoggerJig\proj\test_sd_READ\util.c" 1
  15  0002              	MOV A,(200-9)/0402h
  15  0002              ;# 15 "E:\1_TOSHIBA\Projects\voltage_stabilizer\DataLoggerJig\proj\test_sd_READ\util.c" 1
  15  0002              	MOV _builtin_holtek_delay_2,A
  15  0002              ;# 15 "E:\1_TOSHIBA\Projects\voltage_stabilizer\DataLoggerJig\proj\test_sd_READ\util.c" 1
  15  0002              	MOV A,((200-9)%0402h)/4+1
  15  0002              ;# 15 "E:\1_TOSHIBA\Projects\voltage_stabilizer\DataLoggerJig\proj\test_sd_READ\util.c" 1
  15  0002              	CALL __DELAYY3 +3-(((200-9)%0402h)%4)
  15  0002              	ENDIF
  15  0002  0003        	ret
  15  0003              _delay_100us endp
  15  0003              #line 15 "E:\1_TOSHIBA\Projects\voltage_stabilizer\DataLoggerJig\proj\test_sd_READ\util.c"
  15  0003              #pragma debug scope 1 1
  15  0003              public _strlen
  15  0003              #pragma debug scope 3 1
  77  0003              #line 77 "E:\1_TOSHIBA\Projects\voltage_stabilizer\DataLoggerJig\proj\test_sd_READ\util.c"
  77  0000              _strlen .section 'code'
  77  0000              _strlen proc
  77  0000              public _strlen_2
  77  0000  0003[           local _strlen_2 db 3 dup(?)	; 2,1
            00
            ]
  77  0003              #pragma debug pointer 42 7 3
  77  0003              #pragma debug pointer 42 7 3
  77  0003              #pragma debug variable 42 3 _strlen_2+0 "s"
  78  0003              #line 78 "E:\1_TOSHIBA\Projects\voltage_stabilizer\DataLoggerJig\proj\test_sd_READ\util.c"
  78  0000  1F00     E  	clr rb
  78  0001  1F00     E  	clr rc
  78  0002              _L3:
  79  0002              #line 79 "E:\1_TOSHIBA\Projects\voltage_stabilizer\DataLoggerJig\proj\test_sd_READ\util.c"
  79  0002  0700     E  	mov a,rb
  79  0003  0300     R  	add a,_strlen_2[0]
  79  0004  0083        	mov mp,a
  79  0005  0700     E  	mov a,rc
  79  0006  1300     R  	adc a,_strlen_2[1]
  79  0007  0081        	mov sbp,a
  79  0008  2000     E  	call _Crom2Prom
  79  0009  0080     R  	mov _strlen_2[2],a
  79  000A  0700     R  	mov a,_strlen_2[2]
  79  000B  0A00        	sub a,0
  79  000C  3D0A        	sz z
  79  000D  2800     R  	jmp _L7
  79  000E  0A2E        	sub a,(46)-(0)
  79  000F  3D0A        	sz z
  79  0010  2800     R  	jmp _L7
  79  0011  1480     E  	inc rb
"File: util.c        Assembler  Version HGASM0202      Page 4

  79  0012  3D0A        	sz z
  79  0013  1480     E  	inc rc
  79  0014  2800     R  	jmp _L3
  79  0015              _L7:
  81  0015              #line 81 "E:\1_TOSHIBA\Projects\voltage_stabilizer\DataLoggerJig\proj\test_sd_READ\util.c"
  81  0015  0700     E  	mov a,rb
  81  0016  0080     E  	mov ra,a
  81  0017  0700     E  	mov a,rc
  81  0018  0080     E  	mov rb,a
  81  0019  0003        	ret
  81  001A              _strlen endp
  81  001A              #line 81 "E:\1_TOSHIBA\Projects\voltage_stabilizer\DataLoggerJig\proj\test_sd_READ\util.c"
  81  001A              #pragma debug scope 1 1
  81  001A              public _reverse
  81  001A              #pragma debug scope 4 1
  65  001A              #line 65 "E:\1_TOSHIBA\Projects\voltage_stabilizer\DataLoggerJig\proj\test_sd_READ\util.c"
  65  0000              _reverse .section 'code'
  65  0000              _reverse proc
  65  0000              public _reverse_2
  65  0000  0004[           local _reverse_2 db 4 dup(?)	; 2,2
            00
            ]
  65  0004              #pragma debug pointer 43 7 4
  65  0004              #pragma debug pointer 43 7 4
  65  0004              #pragma debug variable 43 4 _reverse_2+0 "str"
  68  0004              #line 68 "E:\1_TOSHIBA\Projects\voltage_stabilizer\DataLoggerJig\proj\test_sd_READ\util.c"
  68  0000  0700     R  	mov a,_reverse_2[0]
  68  0001  0080     R  	mov _strlen_2[0],a
  68  0002  0700     R  	mov a,_reverse_2[1]
  68  0003  0080     R  	mov _strlen_2[1],a
  68  0004  2000     R  	call _strlen
  68  0005  0700     E  	mov a,rb
  68  0006  0080     E  	mov rc,a
  68  0007  0700     E  	mov a,ra
  68  0008  0BFF        	add a,255
  68  0009  0080     E  	mov rb,a
  68  000A  0FFF        	mov a,255
  68  000B  1380     E  	adcm a,rc
  68  000C  1F00     E  	clr rd
  68  000D  1F00     E  	clr re
  68  000E  2800     R  	jmp _L10
  68  000F              _L11:
  68  000F  0700     E  	mov a,rd
  68  0010  0300     R  	add a,_reverse_2[0]
  68  0011  0080     E  	mov rf,a
  68  0012  0700     E  	mov a,re
  68  0013  1300     R  	adc a,_reverse_2[1]
  68  0014  0080     E  	mov rg,a
  70  0015              #line 70 "E:\1_TOSHIBA\Projects\voltage_stabilizer\DataLoggerJig\proj\test_sd_READ\util.c"
  70  0015  0700     E  	mov a,rf
  70  0016  0083        	mov mp,a
  70  0017  0700     E  	mov a,rg
  70  0018  0081        	mov sbp,a
  70  0019  2000     E  	call _Crom2Prom
  70  001A  0080     E  	mov rh,a
  70  001B  0700     E  	mov a,rb
  70  001C  0300     R  	add a,_reverse_2[0]
  70  001D  0080     R  	mov _reverse_2[2],a
  70  001E  0700     E  	mov a,rc
  70  001F  1300     R  	adc a,_reverse_2[1]
"File: util.c        Assembler  Version HGASM0202      Page 5

  70  0020  0080     R  	mov _reverse_2[3],a
  71  0021              #line 71 "E:\1_TOSHIBA\Projects\voltage_stabilizer\DataLoggerJig\proj\test_sd_READ\util.c"
  71  0021  0700     R  	mov a,_reverse_2[2]
  71  0022  0083        	mov mp,a
  71  0023  0700     R  	mov a,_reverse_2[3]
  71  0024  0081        	mov sbp,a
  71  0025  2000     E  	call _Crom2Prom
  71  0026  0080     E  	mov ra,a
  71  0027  0700     E  	mov a,rf
  71  0028  0083        	mov mp,a
  71  0029  0700     E  	mov a,rg
  71  002A  0081        	mov sbp,a
  71  002B  0701        	mov a,sbp
  71  002C  0084        	mov bp,a
  71  002D  0700     E  	mov a,ra
  71  002E  0082        	mov ir,a
  72  002F              #line 72 "E:\1_TOSHIBA\Projects\voltage_stabilizer\DataLoggerJig\proj\test_sd_READ\util.c"
  72  002F  0700     R  	mov a,_reverse_2[2]
  72  0030  0083        	mov mp,a
  72  0031  0700     R  	mov a,_reverse_2[3]
  72  0032  0081        	mov sbp,a
  72  0033  0701        	mov a,sbp
  72  0034  0084        	mov bp,a
  72  0035  0700     E  	mov a,rh
  72  0036  0082        	mov ir,a
  68  0037              #line 68 "E:\1_TOSHIBA\Projects\voltage_stabilizer\DataLoggerJig\proj\test_sd_READ\util.c"
  68  0037  1480     E  	inc rd
  68  0038  3D0A        	sz z
  68  0039  1480     E  	inc re
  68  003A  0FFF        	mov a,255
  68  003B  0380     E  	addm a,rb
  68  003C  0FFF        	mov a,255
  68  003D  1380     E  	adcm a,rc
  68  003E              _L10:
  68  003E  0700     E  	mov a,rd
  68  003F  0200     E  	sub a,rb
  68  0040  0700     E  	mov a,re
  68  0041  1200     E  	sbc a,rc
  68  0042  1185        	swap acc
  68  0043  040A        	xor a,status
  68  0044  3D85        	sz acc.3
  68  0045  2800     R  	jmp _L11
  68  0046  0003        	ret
  68  0047              _reverse endp
  68  0047              #line 68 "E:\1_TOSHIBA\Projects\voltage_stabilizer\DataLoggerJig\proj\test_sd_READ\util.c"
  68  0047              #pragma debug scope 1 1
  68  0047              public _itoa
  68  0047              #pragma debug scope 5 1
  50  0047              #line 50 "E:\1_TOSHIBA\Projects\voltage_stabilizer\DataLoggerJig\proj\test_sd_READ\util.c"
  50  0000              _itoa .section 'code'
  50  0000              _itoa proc
  50  0000              public _itoa_2
  50  0000  0006[           local _itoa_2 db 6 dup(?)	; 4,2
            00
            ]
  50  0006              #pragma debug variable 11 5 _itoa_2+0 "n"
  50  0006              #pragma debug pointer 44 7 5
  50  0006              #pragma debug pointer 44 7 5
  50  0006              #pragma debug variable 44 5 _itoa_2+2 "s"
  50  0000  0700     R  	mov a,_itoa_2[0]
"File: util.c        Assembler  Version HGASM0202      Page 6

  50  0001  0080     E  	mov rf,a
  50  0002  0700     R  	mov a,_itoa_2[1]
  50  0003  0080     E  	mov rg,a
  50  0004  3800     E  	snz rg.7
  50  0005  2800     R  	jmp _L13
  50  0006  0F00        	mov a,0
  50  0007  0280     E  	subm a,rf
  50  0008  0F00        	mov a,0
  50  0009  1280     E  	sbcm a,rg
  50  000A              _L13:
  50  000A              #line 50 "E:\1_TOSHIBA\Projects\voltage_stabilizer\DataLoggerJig\proj\test_sd_READ\util.c"
  50  000A  1F00     E  	clr rd
  50  000B  1F00     E  	clr re
  50  000C              _L15:
  50  000C  0F01        	mov a,1
  50  000D  0300     E  	add a,rd
  50  000E  0080     E  	mov rb,a
  50  000F  0F00        	mov a,0
  50  0010  1300     E  	adc a,re
  50  0011  0080     E  	mov rc,a
  56  0012              #line 56 "E:\1_TOSHIBA\Projects\voltage_stabilizer\DataLoggerJig\proj\test_sd_READ\util.c"
  56  0012  0700     E  	mov a,rf
  56  0013  0080     E  	mov _builtin_holtek_udivmodhi4_2[0],a
  56  0014  0700     E  	mov a,rg
  56  0015  0080     E  	mov _builtin_holtek_udivmodhi4_2[1],a
  56  0016  0F0A        	mov a,10
  56  0017  0080     E  	mov _builtin_holtek_udivmodhi4_2[2],a
  56  0018  0F00        	mov a,0
  56  0019  0080     E  	mov _builtin_holtek_udivmodhi4_2[3],a
  56  001A  2000     E  	call _builtin_holtek_divmodhi4
  56  001B  0700     E  	mov a,_builtin_holtek_udivmodhi4_2[4]
  56  001C  0080     R  	mov _itoa_2[4],a
  56  001D  0700     E  	mov a,_builtin_holtek_udivmodhi4_2[5]
  56  001E  0080     R  	mov _itoa_2[5],a
  56  001F  0700     R  	mov a,_itoa_2[4]
  56  0020  0B30        	add a,48
  56  0021  0080     E  	mov ra,a
  56  0022  0700     E  	mov a,rd
  56  0023  0300     R  	add a,_itoa_2[2]
  56  0024  0083        	mov mp,a
  56  0025  0700     E  	mov a,re
  56  0026  1300     R  	adc a,_itoa_2[3]
  56  0027  0081        	mov sbp,a
  56  0028  0701        	mov a,sbp
  56  0029  0084        	mov bp,a
  56  002A  0700     E  	mov a,ra
  56  002B  0082        	mov ir,a
  57  002C              #line 57 "E:\1_TOSHIBA\Projects\voltage_stabilizer\DataLoggerJig\proj\test_sd_READ\util.c"
  57  002C  0700     E  	mov a,rf
  57  002D  0080     E  	mov _builtin_holtek_udivmodhi4_2[0],a
  57  002E  0700     E  	mov a,rg
  57  002F  0080     E  	mov _builtin_holtek_udivmodhi4_2[1],a
  57  0030  0F0A        	mov a,10
  57  0031  0080     E  	mov _builtin_holtek_udivmodhi4_2[2],a
  57  0032  0F00        	mov a,0
  57  0033  0080     E  	mov _builtin_holtek_udivmodhi4_2[3],a
  57  0034  2000     E  	call _builtin_holtek_divmodhi4
  57  0035  0700     E  	mov a,_builtin_holtek_udivmodhi4_2[0]
  57  0036  0080     E  	mov rf,a
  57  0037  0700     E  	mov a,_builtin_holtek_udivmodhi4_2[1]
"File: util.c        Assembler  Version HGASM0202      Page 7

  57  0038  0080     E  	mov rg,a
  57  0039  3C00     E  	sz rg.7
  57  003A  2800     R  	jmp _L14
  57  003B  0700     E  	mov a,rf
  57  003C  0500     E  	or a,rg
  57  003D  3D0A        	sz z
  57  003E  2800     R  	jmp _L14
  56  003F              #line 56 "E:\1_TOSHIBA\Projects\voltage_stabilizer\DataLoggerJig\proj\test_sd_READ\util.c"
  56  003F  0700     E  	mov a,rb
  56  0040  0080     E  	mov rd,a
  56  0041  0700     E  	mov a,rc
  56  0042  0080     E  	mov re,a
  56  0043  2800     R  	jmp _L15
  56  0044              _L14:
  56  0044  0700     E  	mov a,rb
  56  0045  0080     E  	mov rf,a
  56  0046  0700     E  	mov a,rc
  56  0047  0080     E  	mov rg,a
  58  0048              #line 58 "E:\1_TOSHIBA\Projects\voltage_stabilizer\DataLoggerJig\proj\test_sd_READ\util.c"
  58  0048  3800     R  	snz _itoa_2[1].7
  58  0049  2800     R  	jmp _L16
  59  004A              #line 59 "E:\1_TOSHIBA\Projects\voltage_stabilizer\DataLoggerJig\proj\test_sd_READ\util.c"
  59  004A  0F02        	mov a,2
  59  004B  0300     E  	add a,rd
  59  004C  0080     E  	mov rb,a
  59  004D  0F00        	mov a,0
  59  004E  1300     E  	adc a,re
  59  004F  0080     E  	mov rc,a
  59  0050  0700     E  	mov a,rf
  59  0051  0300     R  	add a,_itoa_2[2]
  59  0052  0083        	mov mp,a
  59  0053  0700     E  	mov a,rg
  59  0054  1300     R  	adc a,_itoa_2[3]
  59  0055  0081        	mov sbp,a
  59  0056  0701        	mov a,sbp
  59  0057  0084        	mov bp,a
  59  0058  0F2D        	mov a,45
  59  0059  0082        	mov ir,a
  59  005A              _L16:
  60  005A              #line 60 "E:\1_TOSHIBA\Projects\voltage_stabilizer\DataLoggerJig\proj\test_sd_READ\util.c"
  60  005A  0700     E  	mov a,rb
  60  005B  0300     R  	add a,_itoa_2[2]
  60  005C  0083        	mov mp,a
  60  005D  0700     E  	mov a,rc
  60  005E  1300     R  	adc a,_itoa_2[3]
  60  005F  0081        	mov sbp,a
  60  0060  0701        	mov a,sbp
  60  0061  0084        	mov bp,a
  60  0062  0F00        	mov a,0
  60  0063  0082        	mov ir,a
  61  0064              #line 61 "E:\1_TOSHIBA\Projects\voltage_stabilizer\DataLoggerJig\proj\test_sd_READ\util.c"
  61  0064  0700     R  	mov a,_itoa_2[2]
  61  0065  0080     R  	mov _reverse_2[0],a
  61  0066  0700     R  	mov a,_itoa_2[3]
  61  0067  0080     R  	mov _reverse_2[1],a
  61  0068  2000     R  	call _reverse
  61  0069  0003        	ret
  61  006A              _itoa endp
  61  006A              #line 61 "E:\1_TOSHIBA\Projects\voltage_stabilizer\DataLoggerJig\proj\test_sd_READ\util.c"
  61  006A              #pragma debug scope 1 1
"File: util.c        Assembler  Version HGASM0202      Page 8

  61  006A              public _delay
  61  006A              #pragma debug scope 6 1
  84  006A              #line 84 "E:\1_TOSHIBA\Projects\voltage_stabilizer\DataLoggerJig\proj\test_sd_READ\util.c"
  84  0000              _delay .section 'code'
  84  0000              _delay proc
  84  0000              public _delay_2
  84  0000  0004[           local _delay_2 db 4 dup(?)	; 4,0
            00
            ]
  84  0004              #pragma debug variable 14 6 _delay_2+0 "x"
  84  0000  0003        	ret
  84  0001              _delay endp
  84  0001              #line 84 "E:\1_TOSHIBA\Projects\voltage_stabilizer\DataLoggerJig\proj\test_sd_READ\util.c"
  84  0001              #pragma debug scope 1 1
  84  0001              extern _builtin_holtek_divmodhi4:near
  84  0001              extern _builtin_holtek_udivmodhi4_2:byte
  84  0001              extern _builtin_holtek_udivmodhi4:near
  84  0001              
  84  0001              ; 
  84  0001              ; Generated by holtek-gcc v3.14, Tue Jun 05 09:53:29 2018
  84  0001              ; Rebuild 10
  84  0001              ; end of file


        0 Errors, 0