"File: uart.c        Assembler  Version HGASM0202      Page 1


   1  0000              ; Generated by holtek-gcc v3.14, Sun May 06 10:06:59 2018
   2  0000              ; 
   3  0000              ; Configuration:
   4  0000              ;       without long instruction
   5  0000              ;       Single ROM, Multi-RAM
   6  0000              ;       bits_per_rom_unit:16
   7  0000              ;       with mp1
   8  0000              ;       with tbhp, address(0x9)
   9  0000              ;          Use tabrd-const
  10  0000              ;       
  11  0000              ;       
  12  0000              ;       
  13  0000              ; use 'tabrdc' instead of 'tabrd'
  14  0000              ;       
  15  0000              
  16  0000              #pragma translator "holtek-gcc 4.6.4" "3.14" "build 20130711"
  17  0000              ; Rebuild 10
  18  0000              
  19  0000              ir equ [2]
  20  0000              mp equ [3]
  21  0000              sbp equ [1]
  22  0000              acc equ [5]
  23  0000              bp equ [4]
  24  0000              tblp equ [7]
  25  0000              tbhp equ [9]
  26  0000              status equ [10]
  27  0000              c equ [10].0
  28  0000              ac equ [10].1
  29  0000              z equ [10].2
  30  0000              ov equ [10].3
  31  0000              intc equ [11]
  32  0000              
  33  0000              extern ra:byte
  34  0000              extern rb:byte
  35  0000              extern rc:byte
  36  0000              extern rd:byte
  37  0000              extern re:byte
  38  0000              extern rf:byte
  39  0000              extern rg:byte
  40  0000              extern rh:byte
  41  0000              extern _Crom2Prom:near
  42  0000              extern _Crom2PromNext:near
  43  0000              
  44  0000              RAMBANK 0 @HCCINIT, @HCCINIT0
  45  0000              
  46  0000              RAMBANK 0 @BITDATASEC, @BITDATASEC1
  47  0000              @HCCINIT	.section 'data'
  48  0000              @HCCINIT0	.section 'data'
  49  0000              @BITDATASEC	 .section 'data'
  50  0000              @BITDATASEC1	 .section 'data'
  51  0000              
  52  0000              #pragma debug scope 1 1
  53  0000              	extern __DELAY3:near
  54  0000              	extern __DELAYX3:near
  55  0000              	extern __DELAYX6:near
  56  0000              	extern __DELAYY5:near
  57  0000              	extern __DELAYY3:near
  58  0000              	extern _builtin_holtek_delay_2:byte
  59  0000              ___intc2 equ [16]
"File: uart.ASM      Assembler  Version HGASM0202      Page 2

  60  0000              ___intc0 equ [14]
  61  0000              public _UART_init
  62  0000              #pragma debug scope 2 1

  15  0000              #line 15 "E:\1_TOSHIBA\Projects\voltage_stabilizer\PeakDetector_v0.3\uart.c"
  15  0000              _UART_init .section 'code'
  15  0000              _UART_init proc
  17  0000              #line 17 "E:\1_TOSHIBA\Projects\voltage_stabilizer\PeakDetector_v0.3\uart.c"
  17  0000  3190        	set [16].3
  17  0001  33D6        	set [86].7
  17  0002  0F0C        	mov a,12
  17  0003  00D8        	mov [88],a
  17  0004  0FC4        	mov a,196
  17  0005  05D7        	orm a,[87]
  17  0006  300E        	set [14].0
  19  0007              #line 19 "E:\1_TOSHIBA\Projects\voltage_stabilizer\PeakDetector_v0.3\uart.c"
  19  0007  1F00     R  	clr _gu8Main_buf[0]
  19  0008  1F00     R  	clr _gu8Main_buf[1]
  19  0009  1F00     R  	clr _gu8Main_buf[2]
  19  000A  1F00     R  	clr _gu8Main_buf[3]
  19  000B  1F00     R  	clr _gu8Main_buf[4]
  20  000C              #line 20 "E:\1_TOSHIBA\Projects\voltage_stabilizer\PeakDetector_v0.3\uart.c"
  20  000C  1F00     R  	clr _gu8Buf_idx[0]
  21  000D              #line 21 "E:\1_TOSHIBA\Projects\voltage_stabilizer\PeakDetector_v0.3\uart.c"
  21  000D  1F00     R  	clr _gu8Buffer_ready[0]
  22  000E              #line 22 "E:\1_TOSHIBA\Projects\voltage_stabilizer\PeakDetector_v0.3\uart.c"
  22  000E  1F00     R  	clr _uart_signal[0]
  22  000F  0003        	ret
  22  0010              _UART_init endp
  22  0010              #line 22 "E:\1_TOSHIBA\Projects\voltage_stabilizer\PeakDetector_v0.3\uart.c"
  22  0010              #pragma debug scope 1 1
  22  0000              @crom	.section 'crom'
  22  0000              _LC0:
  22  0000              	db 02dh,02dh,02dh,02dh,02dh,02dh,02dh,02dh,02dh,02dh,045h,045h,050h,052h,04fh,04dh,05fh,044h,041h,054h,041h,02dh,02dh,02dh,02dh,02dh,02dh,02dh,02dh,02dh,02dh,00h
  22  0010              _LC1:
  22  0010              	db 0ah,0dh,00h
  22  0012              _LC2:
  22  0012              	db 02dh,02dh,02dh,02dh,02dh,02dh,02dh,02dh,02dh,02dh,04dh,04fh,04eh,049h,054h,04fh,052h,049h,04eh,047h,02dh,02dh,02dh,02dh,02dh,02dh,02dh,02dh,02dh,02dh,00h
  22  0021              public _UART_update
  22  0021              #pragma debug scope 3 1
  26  0021              #line 26 "E:\1_TOSHIBA\Projects\voltage_stabilizer\PeakDetector_v0.3\uart.c"
  26  0000              _UART_update .section 'code'
  26  0000              _UART_update proc
  26  0000  00              local _UART_update_2 db 1 dup(?)	; 0,1
  26  0001              #pragma debug variable 8 3 _UART_update_2+0 "tmp"
  32  0001              #line 32 "E:\1_TOSHIBA\Projects\voltage_stabilizer\PeakDetector_v0.3\uart.c"
  32  0000  0F00        	mov a,0
  32  0001  2000     E  	call _ADC_setSignal
  32  0002              #pragma debug scope 4 3
  32  0002              ;begin block, line: 32.-1
  33  0002              #line 33 "E:\1_TOSHIBA\Projects\voltage_stabilizer\PeakDetector_v0.3\uart.c"
  33  0002  1080     R  	sz _gu8Buffer_ready[0]
  33  0003  2800     R  	jmp _LI1
  33  0004  2800     R  	jmp _L2
  33  0005              _LI1:
  33  0005              #line 33 "E:\1_TOSHIBA\Projects\voltage_stabilizer\PeakDetector_v0.3\uart.c"
  33  0005  0700     R  	mov a,___bufCounter_1926[0]
  33  0006  0080     E  	mov ra,a
  33  0007  1400     E  	inca ra
  33  0008  0080     R  	mov ___bufCounter_1926[0],a
"File: uart.c        Assembler  Version HGASM0202      Page 3

  33  0009  0F00     R  	mov a,low offset _gu8Main_buf
  33  000A  0300     E  	add a,ra
  33  000B  0083        	mov mp,a
  33  000C  0F00     R  	mov a,high offset _gu8Main_buf
  33  000D  1F01        	clr sbp
  33  000E  1381        	adcm a,sbp
  33  000F  2000     E  	call _Crom2Prom
  33  0010  0080     R  	mov _UART_update_2[0],a
  33  0011  1080     R  	sz _UART_update_2[0]
  33  0012  2800     R  	jmp _LI2
  33  0013  2800     R  	jmp _L5
  33  0014              _LI2:
  33  0014  0F04        	mov a,4
  33  0015  0200     R  	sub a,___bufCounter_1926[0]
  33  0016  3C0A        	sz c
  33  0017  2800     R  	jmp _L6
  33  0018              _L5:
  33  0018  1F00     R  	clr ___bufCounter_1926[0]
  33  0019  1F00     R  	clr _gu8Buffer_ready[0]
  33  001A              _L6:
  33  001A              #pragma debug scope 3 1
  34  001A              #line 34 "E:\1_TOSHIBA\Projects\voltage_stabilizer\PeakDetector_v0.3\uart.c"
  34  001A  0700     R  	mov a,_UART_update_2[0]
  34  001B  0A64        	sub a,100
  34  001C  390A        	snz z
  34  001D  2800     R  	jmp _L7
  34  001E  1F00     E  	clr ra
  34  001F              _L8:
  34  001F              #pragma debug scope 5 3
  34  001F              ;begin block, line: 34.-1
  36  001F              #line 36 "E:\1_TOSHIBA\Projects\voltage_stabilizer\PeakDetector_v0.3\uart.c"
  36  001F  0F00     R  	mov a,low offset _LC0
  36  0020  0300     E  	add a,ra
  36  0021  0083        	mov mp,a
  36  0022  0F00     R  	mov a,high offset _LC0
  36  0023  1F01        	clr sbp
  36  0024  1381        	adcm a,sbp
  36  0025  2000     E  	call _Crom2Prom
  36  0026  0080     E  	mov rb,a
  36  0027  1080     E  	sz rb
  36  0028  2800     R  	jmp _LI3
  36  0029  2800     R  	jmp _L13
  36  002A              _LI3:
  36  002A              _L10:
  36  002A  3855        	snz [85].0
  36  002B  2800     R  	jmp _L10
  36  002C  0700     E  	mov a,rb
  36  002D  00D9        	mov [89],a
  36  002E  1480     E  	inc ra
  36  002F  2800     R  	jmp _L8
  36  0030              _L13:
  36  0030  3855        	snz [85].0
  36  0031  2800     R  	jmp _L13
  36  0032  1F59        	clr [89]
  36  0033              #pragma debug scope 3 1
  36  0033              #pragma debug scope 6 3
  36  0033              ;begin block, line: 36.-1
  37  0033              #line 37 "E:\1_TOSHIBA\Projects\voltage_stabilizer\PeakDetector_v0.3\uart.c"
  37  0033  1F00     E  	clr ra
  37  0034              _L14:
"File: uart.c        Assembler  Version HGASM0202      Page 4

  37  0034  0F00     R  	mov a,low offset _LC1
  37  0035  0300     E  	add a,ra
  37  0036  0083        	mov mp,a
  37  0037  0F00     R  	mov a,high offset _LC1
  37  0038  1F01        	clr sbp
  37  0039  1381        	adcm a,sbp
  37  003A  2000     E  	call _Crom2Prom
  37  003B  0080     E  	mov rb,a
  37  003C  1080     E  	sz rb
  37  003D  2800     R  	jmp _LI4
  37  003E  2800     R  	jmp _L19
  37  003F              _LI4:
  37  003F              _L16:
  37  003F  3855        	snz [85].0
  37  0040  2800     R  	jmp _L16
  37  0041  0700     E  	mov a,rb
  37  0042  00D9        	mov [89],a
  37  0043  1480     E  	inc ra
  37  0044  2800     R  	jmp _L14
  37  0045              _L19:
  37  0045  3855        	snz [85].0
  37  0046  2800     R  	jmp _L19
  37  0047  1F59        	clr [89]
  37  0048              #pragma debug scope 3 1
  37  0048              #pragma debug scope 7 3
  37  0048              ;begin block, line: 37.-1
  38  0048              #line 38 "E:\1_TOSHIBA\Projects\voltage_stabilizer\PeakDetector_v0.3\uart.c"
  38  0048  1F00     E  	clr ra
  38  0049              _L20:
  38  0049  0F00     R  	mov a,low offset _LC1
  38  004A  0300     E  	add a,ra
  38  004B  0083        	mov mp,a
  38  004C  0F00     R  	mov a,high offset _LC1
  38  004D  1F01        	clr sbp
  38  004E  1381        	adcm a,sbp
  38  004F  2000     E  	call _Crom2Prom
  38  0050  0080     E  	mov rb,a
  38  0051  1080     E  	sz rb
  38  0052  2800     R  	jmp _LI5
  38  0053  2800     R  	jmp _L25
  38  0054              _LI5:
  38  0054              _L22:
  38  0054  3855        	snz [85].0
  38  0055  2800     R  	jmp _L22
  38  0056  0700     E  	mov a,rb
  38  0057  00D9        	mov [89],a
  38  0058  1480     E  	inc ra
  38  0059  2800     R  	jmp _L20
  38  005A              _L25:
  38  005A  3855        	snz [85].0
  38  005B  2800     R  	jmp _L25
  38  005C  1F59        	clr [89]
  38  005D              #pragma debug scope 3 1
  39  005D              #line 39 "E:\1_TOSHIBA\Projects\voltage_stabilizer\PeakDetector_v0.3\uart.c"
  39  005D  0F01        	mov a,1
  39  005E  0080     R  	mov _uart_signal[0],a
  40  005F              #line 40 "E:\1_TOSHIBA\Projects\voltage_stabilizer\PeakDetector_v0.3\uart.c"
  40  005F  0F01        	mov a,1
  40  0060  2800     R  	jmp _L48
  40  0061              _L7:
"File: uart.c        Assembler  Version HGASM0202      Page 5

  42  0061              #line 42 "E:\1_TOSHIBA\Projects\voltage_stabilizer\PeakDetector_v0.3\uart.c"
  42  0061  0700     R  	mov a,_UART_update_2[0]
  42  0062  0A6D        	sub a,109
  42  0063  390A        	snz z
  42  0064  2800     R  	jmp _L2
  42  0065  1F00     E  	clr ra
  42  0066              _L27:
  42  0066              #pragma debug scope 8 3
  42  0066              ;begin block, line: 42.-1
  44  0066              #line 44 "E:\1_TOSHIBA\Projects\voltage_stabilizer\PeakDetector_v0.3\uart.c"
  44  0066  0F00     R  	mov a,low offset _LC1
  44  0067  0300     E  	add a,ra
  44  0068  0083        	mov mp,a
  44  0069  0F00     R  	mov a,high offset _LC1
  44  006A  1F01        	clr sbp
  44  006B  1381        	adcm a,sbp
  44  006C  2000     E  	call _Crom2Prom
  44  006D  0080     E  	mov rb,a
  44  006E  1080     E  	sz rb
  44  006F  2800     R  	jmp _LI6
  44  0070  2800     R  	jmp _L32
  44  0071              _LI6:
  44  0071              _L29:
  44  0071  3855        	snz [85].0
  44  0072  2800     R  	jmp _L29
  44  0073  0700     E  	mov a,rb
  44  0074  00D9        	mov [89],a
  44  0075  1480     E  	inc ra
  44  0076  2800     R  	jmp _L27
  44  0077              _L32:
  44  0077  3855        	snz [85].0
  44  0078  2800     R  	jmp _L32
  44  0079  1F59        	clr [89]
  44  007A              #pragma debug scope 3 1
  44  007A              #pragma debug scope 9 3
  44  007A              ;begin block, line: 44.-1
  45  007A              #line 45 "E:\1_TOSHIBA\Projects\voltage_stabilizer\PeakDetector_v0.3\uart.c"
  45  007A  1F00     E  	clr ra
  45  007B              _L33:
  45  007B  0F00     R  	mov a,low offset _LC2
  45  007C  0300     E  	add a,ra
  45  007D  0083        	mov mp,a
  45  007E  0F00     R  	mov a,high offset _LC2
  45  007F  1F01        	clr sbp
  45  0080  1381        	adcm a,sbp
  45  0081  2000     E  	call _Crom2Prom
  45  0082  0080     E  	mov rb,a
  45  0083  1080     E  	sz rb
  45  0084  2800     R  	jmp _LI7
  45  0085  2800     R  	jmp _L38
  45  0086              _LI7:
  45  0086              _L35:
  45  0086  3855        	snz [85].0
  45  0087  2800     R  	jmp _L35
  45  0088  0700     E  	mov a,rb
  45  0089  00D9        	mov [89],a
  45  008A  1480     E  	inc ra
  45  008B  2800     R  	jmp _L33
  45  008C              _L38:
  45  008C  3855        	snz [85].0
"File: uart.c        Assembler  Version HGASM0202      Page 6

  45  008D  2800     R  	jmp _L38
  45  008E  1F59        	clr [89]
  45  008F              #pragma debug scope 3 1
  45  008F              #pragma debug scope 10 3
  45  008F              ;begin block, line: 45.-1
  46  008F              #line 46 "E:\1_TOSHIBA\Projects\voltage_stabilizer\PeakDetector_v0.3\uart.c"
  46  008F  1F00     E  	clr ra
  46  0090              _L39:
  46  0090  0F00     R  	mov a,low offset _LC1
  46  0091  0300     E  	add a,ra
  46  0092  0083        	mov mp,a
  46  0093  0F00     R  	mov a,high offset _LC1
  46  0094  1F01        	clr sbp
  46  0095  1381        	adcm a,sbp
  46  0096  2000     E  	call _Crom2Prom
  46  0097  0080     E  	mov rb,a
  46  0098  1080     E  	sz rb
  46  0099  2800     R  	jmp _LI8
  46  009A  2800     R  	jmp _L44
  46  009B              _LI8:
  46  009B              _L41:
  46  009B  3855        	snz [85].0
  46  009C  2800     R  	jmp _L41
  46  009D  0700     E  	mov a,rb
  46  009E  00D9        	mov [89],a
  46  009F  1480     E  	inc ra
  46  00A0  2800     R  	jmp _L39
  46  00A1              _L44:
  46  00A1  3855        	snz [85].0
  46  00A2  2800     R  	jmp _L44
  46  00A3  1F59        	clr [89]
  46  00A4              #pragma debug scope 3 1
  47  00A4              #line 47 "E:\1_TOSHIBA\Projects\voltage_stabilizer\PeakDetector_v0.3\uart.c"
  47  00A4  1F00     R  	clr _uart_signal[0]
  48  00A5              #line 48 "E:\1_TOSHIBA\Projects\voltage_stabilizer\PeakDetector_v0.3\uart.c"
  48  00A5  0F00        	mov a,0
  48  00A6              _L48:
  48  00A6  2000     E  	call _ADC_setSignal
  48  00A7              _L2:
  48  00A7  0003        	ret
  48  00A8              _UART_update endp
  48  00A8              #line 48 "E:\1_TOSHIBA\Projects\voltage_stabilizer\PeakDetector_v0.3\uart.c"
  48  00A8              #pragma debug scope 1 1
  48  00A8              public _UART_getSignal
  48  00A8              #pragma debug scope 11 1
  53  00A8              #line 53 "E:\1_TOSHIBA\Projects\voltage_stabilizer\PeakDetector_v0.3\uart.c"
  53  0000              _UART_getSignal .section 'code'
  53  0000              _UART_getSignal proc
  54  0000              #line 54 "E:\1_TOSHIBA\Projects\voltage_stabilizer\PeakDetector_v0.3\uart.c"
  54  0000  0700     R  	mov a,_uart_signal[0]
  54  0001  0080     E  	mov ra,a
  55  0002              #line 55 "E:\1_TOSHIBA\Projects\voltage_stabilizer\PeakDetector_v0.3\uart.c"
  55  0002  0700     E  	mov a,ra
  55  0003  0003        	ret
  55  0004              _UART_getSignal endp
  55  0004              #line 55 "E:\1_TOSHIBA\Projects\voltage_stabilizer\PeakDetector_v0.3\uart.c"
  55  0004              #pragma debug scope 1 1
  55  0004              public _UART_setSignal
  55  0004              #pragma debug scope 12 1
  58  0004              #line 58 "E:\1_TOSHIBA\Projects\voltage_stabilizer\PeakDetector_v0.3\uart.c"
"File: uart.c        Assembler  Version HGASM0202      Page 7

  58  0000              _UART_setSignal .section 'code'
  58  0000              _UART_setSignal proc
  58  0000  00              local _UART_setSignal_2 db 1 dup(?)	; 0,1
  58  0000  0080     E  	mov ra,a
  58  0001              #pragma debug variable 8 12 _UART_setSignal_2+0 "signal"
  59  0001              #line 59 "E:\1_TOSHIBA\Projects\voltage_stabilizer\PeakDetector_v0.3\uart.c"
  59  0001  0700     E  	mov a,ra
  59  0002  0080     R  	mov _uart_signal[0],a
  59  0003  0003        	ret
  59  0004              _UART_setSignal endp
  59  0004              #line 59 "E:\1_TOSHIBA\Projects\voltage_stabilizer\PeakDetector_v0.3\uart.c"
  59  0004              #pragma debug scope 1 1
  59  0004              public _ISR_uart
  59  0004              #pragma debug scope 13 1
  66  0004              #line 66 "E:\1_TOSHIBA\Projects\voltage_stabilizer\PeakDetector_v0.3\uart.c"
  66  0000              @ISR_uart_code .section at 44 'code'
  66  0000  0080     E  	mov r1,a
  66  0001  0704        	mov a,bp
  66  0002  0080     E  	mov r2,a
  66  0003  2800     R  	jmp _ISR_uart
  66  0004              #pragma debug scope 1 1
  66  0004              @dummy44 endp
  66  0004              #pragma debug scope 14 1
  66  0000              _ISR_uart .section 'code'
  66  0000              _ISR_uart proc
  66  0000  00          local _ISR_uart_2 db 1 dup(?)
  66  0000  070A        	mov a,status
  66  0001  0080     E  	mov r3,a
  66  0002  0703        	mov a,mp
  66  0003  0080     E  	mov r4,a
  66  0004  0701        	mov a,sbp
  66  0005  0080     E  	mov r5,a
  66  0006              #pragma debug variable 7 14 _ISR_uart_2+0 "data"
  69  0006              #line 69 "E:\1_TOSHIBA\Projects\voltage_stabilizer\PeakDetector_v0.3\uart.c"
  69  0006  0759        	mov a,[89]
  69  0007  0080     R  	mov _ISR_uart_2[0],a
  70  0008              #line 70 "E:\1_TOSHIBA\Projects\voltage_stabilizer\PeakDetector_v0.3\uart.c"
  70  0008  1080     R  	sz _gu8Buffer_ready[0]
  70  0009  2800     R  	jmp _L52
  72  000A              #line 72 "E:\1_TOSHIBA\Projects\voltage_stabilizer\PeakDetector_v0.3\uart.c"
  72  000A  0700     R  	mov a,_gu8Buf_idx[0]
  72  000B  0080     E  	mov ra,a
  72  000C  1400     E  	inca ra
  72  000D  0080     R  	mov _gu8Buf_idx[0],a
  72  000E  0F00     R  	mov a,low offset _gu8Main_buf
  72  000F  0300     E  	add a,ra
  72  0010  0083        	mov mp,a
  72  0011  0F00     R  	mov a,high offset _gu8Main_buf
  72  0012  1F01        	clr sbp
  72  0013  1381        	adcm a,sbp
  72  0014  0701        	mov a,sbp
  72  0015  0084        	mov bp,a
  72  0016  0700     R  	mov a,_ISR_uart_2[0]
  72  0017  0082        	mov ir,a
  73  0018              #line 73 "E:\1_TOSHIBA\Projects\voltage_stabilizer\PeakDetector_v0.3\uart.c"
  73  0018  0700     R  	mov a,_ISR_uart_2[0]
  73  0019  0A0A        	sub a,10
  73  001A  3D0A        	sz z
  73  001B  2800     R  	jmp _L55
  73  001C  0A03        	sub a,(13)-(10)
"File: uart.c        Assembler  Version HGASM0202      Page 8

  73  001D  3D0A        	sz z
  73  001E  2800     R  	jmp _L55
  73  001F  0700     R  	mov a,_ISR_uart_2[0]
  73  0020  0080     E  	mov ra,a
  73  0021  0700     R  	mov a,_ISR_uart_2[0]
  73  0022  0080     E  	mov ra,a
  73  0023  0F03        	mov a,3
  73  0024  0200     R  	sub a,_gu8Buf_idx[0]
  73  0025  3C0A        	sz c
  73  0026  2800     R  	jmp _L52
  73  0027              _L55:
  75  0027              #line 75 "E:\1_TOSHIBA\Projects\voltage_stabilizer\PeakDetector_v0.3\uart.c"
  75  0027  0F00     R  	mov a,low (offset _gu8Main_buf-1)
  75  0028  0300     R  	add a,_gu8Buf_idx[0]
  75  0029  0083        	mov mp,a
  75  002A  0F00     R  	mov a,high (offset _gu8Main_buf-1)
  75  002B  1F01        	clr sbp
  75  002C  1381        	adcm a,sbp
  75  002D  0701        	mov a,sbp
  75  002E  0084        	mov bp,a
  75  002F  0F00        	mov a,0
  75  0030  0082        	mov ir,a
  76  0031              #line 76 "E:\1_TOSHIBA\Projects\voltage_stabilizer\PeakDetector_v0.3\uart.c"
  76  0031  1F00     R  	clr _gu8Buf_idx[0]
  77  0032              #line 77 "E:\1_TOSHIBA\Projects\voltage_stabilizer\PeakDetector_v0.3\uart.c"
  77  0032  0F01        	mov a,1
  77  0033  0080     R  	mov _gu8Buffer_ready[0],a
  77  0034              _L52:
  77  0034  0700     E  	mov a,r2
  77  0035  0084        	mov bp,a
  77  0036  0700     E  	mov a,r3
  77  0037  008A        	mov status,a
  77  0038  0700     E  	mov a,r4
  77  0039  0083        	mov mp,a
  77  003A  0700     E  	mov a,r5
  77  003B  0081        	mov sbp,a
  77  003C  0700     E  	mov a,r1
  77  003D  0004        	reti
  77  003E              _ISR_uart endp
  77  003E              
  77  003E              #line 77 "E:\1_TOSHIBA\Projects\voltage_stabilizer\PeakDetector_v0.3\uart.c"
  77  003E              #pragma debug scope 1 1
  77  0000              @HCCINIT0	.section	'data'
  77  0000              ___bufCounter_1926	db 0
  77  0001              #pragma debug variable 8 1 ___bufCounter_1926 "__bufCounter_1926"
  77  0001              
  77  0000              @HCCINIT .section 'data'
  77  0001              @HCCINIT0	.section	'data'
  77  0001              _uart_signal	db 0
  77  0002              #pragma debug variable 8 1 _uart_signal "uart_signal"
  77  0002              
  77  0000              @HCCINIT .section 'data'
  77  0000              public _gu8Buffer_ready
  77  0000              @HCCINIT	.section 'data'
  11  0000              #line 11 "E:\1_TOSHIBA\Projects\voltage_stabilizer\PeakDetector_v0.3\uart.c"
  11  0000              @HCCINIT .section 'data'
  11  0000              _gu8Buffer_ready label byte
  11  0000              #pragma debug variable 8 1 _gu8Buffer_ready "gu8Buffer_ready"
  11  0000              	db 0
  11  0000              @ROMDATA_BASE .section inpage 'code'
"File: uart.c        Assembler  Version HGASM0202      Page 9

  11  0000              	db 0
  11  0001              @HCCINIT .section 'data'
  11  0001              public _gu8Main_buf
  10  0001              #line 10 "E:\1_TOSHIBA\Projects\voltage_stabilizer\PeakDetector_v0.3\uart.c"
  10  0001              @HCCINIT .section 'data'
  10  0001              _gu8Main_buf label byte
  10  0001              #pragma debug array 42 8 5 1
  10  0001              #pragma debug array 42 8 5 1
  10  0001              #pragma debug variable 42 1 _gu8Main_buf "gu8Main_buf"
  10  0001              	db 0
  10  0001              @ROMDATA_BASE .section inpage 'code'
  10  0001              	db 0
  10  0002              @HCCINIT .section 'data'
  10  0002              	db 0
  10  0001              @ROMDATA_BASE .section inpage 'code'
  10  0001              	db 0
  10  0003              @HCCINIT .section 'data'
  10  0003              	db 0
  10  0002              @ROMDATA_BASE .section inpage 'code'
  10  0002              	db 0
  10  0004              @HCCINIT .section 'data'
  10  0004              	db 0
  10  0002              @ROMDATA_BASE .section inpage 'code'
  10  0002              	db 0
  10  0005              @HCCINIT .section 'data'
  10  0005              	db 0
  10  0003              @ROMDATA_BASE .section inpage 'code'
  10  0003              	db 0
  10  0006              @HCCINIT .section 'data'
  10  0006              public _gu8Buf_idx
   9  0006              #line 9 "E:\1_TOSHIBA\Projects\voltage_stabilizer\PeakDetector_v0.3\uart.c"
   9  0006              @HCCINIT .section 'data'
   9  0006              _gu8Buf_idx label byte
   9  0006              #pragma debug variable 8 1 _gu8Buf_idx "gu8Buf_idx"
   9  0006              	db 0
   9  0003              @ROMDATA_BASE .section inpage 'code'
   9  0003              	db 0
   9  0007              @HCCINIT .section 'data'
   9  0007              #pragma debug struct_end
   9  0007              #pragma debug struct_end
   9  0007              #pragma debug union_end
   9  0007              #pragma debug union_end
   9  0007              #pragma debug variable 44 1 ___intc0 "__intc0" 1
   9  0007              #pragma debug struct_end
   9  0007              #pragma debug struct_end
   9  0007              #pragma debug union_end
   9  0007              #pragma debug union_end
   9  0007              #pragma debug variable 46 1 ___intc2 "__intc2" 1
   9  0007              #pragma debug variable 8 4 ___bufCounter_1926 "bufCounter"
   9  0007              extern r1:byte
   9  0007              extern r2:byte
   9  0007              extern r3:byte
   9  0007              extern r4:byte
   9  0007              extern r5:byte
   9  0007              extern _ADC_setSignal:near
   9  0007              
   9  0007              ; 
   9  0007              ; Generated by holtek-gcc v3.14, Sun May 06 10:06:59 2018
   9  0007              ; Rebuild 10
   9  0007              ; end of file
"File: uart.c        Assembler  Version HGASM0202      Page 10



        0 Errors, 0